Archive member included because of file (symbol)

/usr/local/Cellar/gcc-arm-none-eabi-49/20150925/bin/../lib/gcc/arm-none-eabi/4.9.3/../../../../arm-none-eabi/lib/armv7e-m/fpu/libg.a(lib_a-memcpy.o)
                              /var/folders/_f/jzb7lsz153bclt069nvlpp5r0000gn/T//ccGAufxj.ltrans7.ltrans.o (memcpy)
/usr/local/Cellar/gcc-arm-none-eabi-49/20150925/bin/../lib/gcc/arm-none-eabi/4.9.3/../../../../arm-none-eabi/lib/armv7e-m/fpu/libg.a(lib_a-memset.o)
                              /var/folders/_f/jzb7lsz153bclt069nvlpp5r0000gn/T//ccGAufxj.ltrans5.ltrans.o (memset)
/usr/local/Cellar/gcc-arm-none-eabi-49/20150925/bin/../lib/gcc/arm-none-eabi/4.9.3/../../../../arm-none-eabi/lib/armv7e-m/fpu/libg.a(lib_a-vsnprintf.o)
                              /var/folders/_f/jzb7lsz153bclt069nvlpp5r0000gn/T//ccGAufxj.ltrans5.ltrans.o (vsnprintf)
/usr/local/Cellar/gcc-arm-none-eabi-49/20150925/bin/../lib/gcc/arm-none-eabi/4.9.3/../../../../arm-none-eabi/lib/armv7e-m/fpu/libg.a(lib_a-impure.o)
                              /usr/local/Cellar/gcc-arm-none-eabi-49/20150925/bin/../lib/gcc/arm-none-eabi/4.9.3/../../../../arm-none-eabi/lib/armv7e-m/fpu/libg.a(lib_a-vsnprintf.o) (_impure_ptr)
/usr/local/Cellar/gcc-arm-none-eabi-49/20150925/bin/../lib/gcc/arm-none-eabi/4.9.3/../../../../arm-none-eabi/lib/armv7e-m/fpu/libg.a(lib_a-svfprintf.o)
                              /usr/local/Cellar/gcc-arm-none-eabi-49/20150925/bin/../lib/gcc/arm-none-eabi/4.9.3/../../../../arm-none-eabi/lib/armv7e-m/fpu/libg.a(lib_a-vsnprintf.o) (_svfprintf_r)
/usr/local/Cellar/gcc-arm-none-eabi-49/20150925/bin/../lib/gcc/arm-none-eabi/4.9.3/../../../../arm-none-eabi/lib/armv7e-m/fpu/libg.a(lib_a-dtoa.o)
                              /usr/local/Cellar/gcc-arm-none-eabi-49/20150925/bin/../lib/gcc/arm-none-eabi/4.9.3/../../../../arm-none-eabi/lib/armv7e-m/fpu/libg.a(lib_a-svfprintf.o) (_dtoa_r)
/usr/local/Cellar/gcc-arm-none-eabi-49/20150925/bin/../lib/gcc/arm-none-eabi/4.9.3/../../../../arm-none-eabi/lib/armv7e-m/fpu/libg.a(lib_a-locale.o)
                              /usr/local/Cellar/gcc-arm-none-eabi-49/20150925/bin/../lib/gcc/arm-none-eabi/4.9.3/../../../../arm-none-eabi/lib/armv7e-m/fpu/libg.a(lib_a-svfprintf.o) (_localeconv_r)
/usr/local/Cellar/gcc-arm-none-eabi-49/20150925/bin/../lib/gcc/arm-none-eabi/4.9.3/../../../../arm-none-eabi/lib/armv7e-m/fpu/libg.a(lib_a-mallocr.o)
                              /usr/local/Cellar/gcc-arm-none-eabi-49/20150925/bin/../lib/gcc/arm-none-eabi/4.9.3/../../../../arm-none-eabi/lib/armv7e-m/fpu/libg.a(lib_a-svfprintf.o) (_malloc_r)
/usr/local/Cellar/gcc-arm-none-eabi-49/20150925/bin/../lib/gcc/arm-none-eabi/4.9.3/../../../../arm-none-eabi/lib/armv7e-m/fpu/libg.a(lib_a-memchr.o)
                              /usr/local/Cellar/gcc-arm-none-eabi-49/20150925/bin/../lib/gcc/arm-none-eabi/4.9.3/../../../../arm-none-eabi/lib/armv7e-m/fpu/libg.a(lib_a-svfprintf.o) (memchr)
/usr/local/Cellar/gcc-arm-none-eabi-49/20150925/bin/../lib/gcc/arm-none-eabi/4.9.3/../../../../arm-none-eabi/lib/armv7e-m/fpu/libg.a(lib_a-mlock.o)
                              /usr/local/Cellar/gcc-arm-none-eabi-49/20150925/bin/../lib/gcc/arm-none-eabi/4.9.3/../../../../arm-none-eabi/lib/armv7e-m/fpu/libg.a(lib_a-mallocr.o) (__malloc_lock)
/usr/local/Cellar/gcc-arm-none-eabi-49/20150925/bin/../lib/gcc/arm-none-eabi/4.9.3/../../../../arm-none-eabi/lib/armv7e-m/fpu/libg.a(lib_a-mprec.o)
                              /usr/local/Cellar/gcc-arm-none-eabi-49/20150925/bin/../lib/gcc/arm-none-eabi/4.9.3/../../../../arm-none-eabi/lib/armv7e-m/fpu/libg.a(lib_a-dtoa.o) (_Balloc)
/usr/local/Cellar/gcc-arm-none-eabi-49/20150925/bin/../lib/gcc/arm-none-eabi/4.9.3/../../../../arm-none-eabi/lib/armv7e-m/fpu/libg.a(lib_a-s_fpclassify.o)
                              /usr/local/Cellar/gcc-arm-none-eabi-49/20150925/bin/../lib/gcc/arm-none-eabi/4.9.3/../../../../arm-none-eabi/lib/armv7e-m/fpu/libg.a(lib_a-svfprintf.o) (__fpclassifyd)
/usr/local/Cellar/gcc-arm-none-eabi-49/20150925/bin/../lib/gcc/arm-none-eabi/4.9.3/../../../../arm-none-eabi/lib/armv7e-m/fpu/libg.a(lib_a-strcmp.o)
                              /usr/local/Cellar/gcc-arm-none-eabi-49/20150925/bin/../lib/gcc/arm-none-eabi/4.9.3/../../../../arm-none-eabi/lib/armv7e-m/fpu/libg.a(lib_a-locale.o) (strcmp)
/usr/local/Cellar/gcc-arm-none-eabi-49/20150925/bin/../lib/gcc/arm-none-eabi/4.9.3/../../../../arm-none-eabi/lib/armv7e-m/fpu/libg.a(lib_a-strlen.o)
                              /usr/local/Cellar/gcc-arm-none-eabi-49/20150925/bin/../lib/gcc/arm-none-eabi/4.9.3/../../../../arm-none-eabi/lib/armv7e-m/fpu/libg.a(lib_a-svfprintf.o) (strlen)
/usr/local/Cellar/gcc-arm-none-eabi-49/20150925/bin/../lib/gcc/arm-none-eabi/4.9.3/../../../../arm-none-eabi/lib/armv7e-m/fpu/libg.a(lib_a-svfiprintf.o)
                              /usr/local/Cellar/gcc-arm-none-eabi-49/20150925/bin/../lib/gcc/arm-none-eabi/4.9.3/../../../../arm-none-eabi/lib/armv7e-m/fpu/libg.a(lib_a-svfprintf.o) (__ssprint_r)
/usr/local/Cellar/gcc-arm-none-eabi-49/20150925/bin/../lib/gcc/arm-none-eabi/4.9.3/../../../../arm-none-eabi/lib/armv7e-m/fpu/libg.a(lib_a-callocr.o)
                              /usr/local/Cellar/gcc-arm-none-eabi-49/20150925/bin/../lib/gcc/arm-none-eabi/4.9.3/../../../../arm-none-eabi/lib/armv7e-m/fpu/libg.a(lib_a-mprec.o) (_calloc_r)
/usr/local/Cellar/gcc-arm-none-eabi-49/20150925/bin/../lib/gcc/arm-none-eabi/4.9.3/../../../../arm-none-eabi/lib/armv7e-m/fpu/libg.a(lib_a-freer.o)
                              /usr/local/Cellar/gcc-arm-none-eabi-49/20150925/bin/../lib/gcc/arm-none-eabi/4.9.3/../../../../arm-none-eabi/lib/armv7e-m/fpu/libg.a(lib_a-mallocr.o) (_free_r)
/usr/local/Cellar/gcc-arm-none-eabi-49/20150925/bin/../lib/gcc/arm-none-eabi/4.9.3/../../../../arm-none-eabi/lib/armv7e-m/fpu/libg.a(lib_a-memmove.o)
                              /usr/local/Cellar/gcc-arm-none-eabi-49/20150925/bin/../lib/gcc/arm-none-eabi/4.9.3/../../../../arm-none-eabi/lib/armv7e-m/fpu/libg.a(lib_a-svfiprintf.o) (memmove)
/usr/local/Cellar/gcc-arm-none-eabi-49/20150925/bin/../lib/gcc/arm-none-eabi/4.9.3/../../../../arm-none-eabi/lib/armv7e-m/fpu/libg.a(lib_a-reallocr.o)
                              /usr/local/Cellar/gcc-arm-none-eabi-49/20150925/bin/../lib/gcc/arm-none-eabi/4.9.3/../../../../arm-none-eabi/lib/armv7e-m/fpu/libg.a(lib_a-svfiprintf.o) (_realloc_r)
/usr/local/Cellar/gcc-arm-none-eabi-49/20150925/bin/../lib/gcc/arm-none-eabi/4.9.3/armv7e-m/fpu/libgcc.a(_arm_addsubdf3.o)
                              /usr/local/Cellar/gcc-arm-none-eabi-49/20150925/bin/../lib/gcc/arm-none-eabi/4.9.3/../../../../arm-none-eabi/lib/armv7e-m/fpu/libg.a(lib_a-dtoa.o) (__aeabi_dsub)
/usr/local/Cellar/gcc-arm-none-eabi-49/20150925/bin/../lib/gcc/arm-none-eabi/4.9.3/armv7e-m/fpu/libgcc.a(_arm_muldivdf3.o)
                              /usr/local/Cellar/gcc-arm-none-eabi-49/20150925/bin/../lib/gcc/arm-none-eabi/4.9.3/../../../../arm-none-eabi/lib/armv7e-m/fpu/libg.a(lib_a-dtoa.o) (__aeabi_dmul)
/usr/local/Cellar/gcc-arm-none-eabi-49/20150925/bin/../lib/gcc/arm-none-eabi/4.9.3/armv7e-m/fpu/libgcc.a(_arm_cmpdf2.o)
                              /usr/local/Cellar/gcc-arm-none-eabi-49/20150925/bin/../lib/gcc/arm-none-eabi/4.9.3/../../../../arm-none-eabi/lib/armv7e-m/fpu/libg.a(lib_a-svfprintf.o) (__aeabi_dcmpeq)
/usr/local/Cellar/gcc-arm-none-eabi-49/20150925/bin/../lib/gcc/arm-none-eabi/4.9.3/armv7e-m/fpu/libgcc.a(_arm_fixdfsi.o)
                              /usr/local/Cellar/gcc-arm-none-eabi-49/20150925/bin/../lib/gcc/arm-none-eabi/4.9.3/../../../../arm-none-eabi/lib/armv7e-m/fpu/libg.a(lib_a-dtoa.o) (__aeabi_d2iz)
/usr/local/Cellar/gcc-arm-none-eabi-49/20150925/bin/../lib/gcc/arm-none-eabi/4.9.3/armv7e-m/fpu/libgcc.a(_aeabi_uldivmod.o)
                              /usr/local/Cellar/gcc-arm-none-eabi-49/20150925/bin/../lib/gcc/arm-none-eabi/4.9.3/../../../../arm-none-eabi/lib/armv7e-m/fpu/libg.a(lib_a-svfprintf.o) (__aeabi_uldivmod)
/usr/local/Cellar/gcc-arm-none-eabi-49/20150925/bin/../lib/gcc/arm-none-eabi/4.9.3/armv7e-m/fpu/libgcc.a(bpabi.o)
                              /usr/local/Cellar/gcc-arm-none-eabi-49/20150925/bin/../lib/gcc/arm-none-eabi/4.9.3/armv7e-m/fpu/libgcc.a(_aeabi_uldivmod.o) (__gnu_uldivmod_helper)
/usr/local/Cellar/gcc-arm-none-eabi-49/20150925/bin/../lib/gcc/arm-none-eabi/4.9.3/armv7e-m/fpu/libgcc.a(_dvmd_tls.o)
                              /usr/local/Cellar/gcc-arm-none-eabi-49/20150925/bin/../lib/gcc/arm-none-eabi/4.9.3/armv7e-m/fpu/libgcc.a(_aeabi_uldivmod.o) (__aeabi_ldiv0)
/usr/local/Cellar/gcc-arm-none-eabi-49/20150925/bin/../lib/gcc/arm-none-eabi/4.9.3/armv7e-m/fpu/libgcc.a(_divdi3.o)
                              /usr/local/Cellar/gcc-arm-none-eabi-49/20150925/bin/../lib/gcc/arm-none-eabi/4.9.3/armv7e-m/fpu/libgcc.a(bpabi.o) (__divdi3)
/usr/local/Cellar/gcc-arm-none-eabi-49/20150925/bin/../lib/gcc/arm-none-eabi/4.9.3/armv7e-m/fpu/libgcc.a(_udivdi3.o)
                              /usr/local/Cellar/gcc-arm-none-eabi-49/20150925/bin/../lib/gcc/arm-none-eabi/4.9.3/armv7e-m/fpu/libgcc.a(bpabi.o) (__udivdi3)

Discarded input sections

 .data          0x0000000000000000        0x0 ./build/obj/crt0_v7m.o
 .bss           0x0000000000000000        0x0 ./build/obj/crt0_v7m.o
 .data          0x0000000000000000        0x0 ./build/obj/vectors.o
 .bss           0x0000000000000000        0x0 ./build/obj/vectors.o
 .data          0x0000000000000000        0x0 ./build/obj/chcoreasm_v7m.o
 .bss           0x0000000000000000        0x0 ./build/obj/chcoreasm_v7m.o
 .text          0x0000000000000000        0x0 ./build/obj/crt1.o (symbol from plugin)
 .text          0x0000000000000000        0x0 /var/folders/_f/jzb7lsz153bclt069nvlpp5r0000gn/T//ccGAufxj.ltrans0.ltrans.o
 .data          0x0000000000000000        0x0 /var/folders/_f/jzb7lsz153bclt069nvlpp5r0000gn/T//ccGAufxj.ltrans0.ltrans.o
 .bss           0x0000000000000000        0x0 /var/folders/_f/jzb7lsz153bclt069nvlpp5r0000gn/T//ccGAufxj.ltrans0.ltrans.o
 .text          0x0000000000000000        0x0 /var/folders/_f/jzb7lsz153bclt069nvlpp5r0000gn/T//ccGAufxj.ltrans1.ltrans.o
 .data          0x0000000000000000        0x0 /var/folders/_f/jzb7lsz153bclt069nvlpp5r0000gn/T//ccGAufxj.ltrans1.ltrans.o
 .bss           0x0000000000000000        0x0 /var/folders/_f/jzb7lsz153bclt069nvlpp5r0000gn/T//ccGAufxj.ltrans1.ltrans.o
 .text          0x0000000000000000        0x0 /var/folders/_f/jzb7lsz153bclt069nvlpp5r0000gn/T//ccGAufxj.ltrans2.ltrans.o
 .data          0x0000000000000000        0x0 /var/folders/_f/jzb7lsz153bclt069nvlpp5r0000gn/T//ccGAufxj.ltrans2.ltrans.o
 .bss           0x0000000000000000        0x0 /var/folders/_f/jzb7lsz153bclt069nvlpp5r0000gn/T//ccGAufxj.ltrans2.ltrans.o
 .text          0x0000000000000000        0x0 /var/folders/_f/jzb7lsz153bclt069nvlpp5r0000gn/T//ccGAufxj.ltrans3.ltrans.o
 .data          0x0000000000000000        0x0 /var/folders/_f/jzb7lsz153bclt069nvlpp5r0000gn/T//ccGAufxj.ltrans3.ltrans.o
 .bss           0x0000000000000000        0x0 /var/folders/_f/jzb7lsz153bclt069nvlpp5r0000gn/T//ccGAufxj.ltrans3.ltrans.o
 .text          0x0000000000000000        0x0 /var/folders/_f/jzb7lsz153bclt069nvlpp5r0000gn/T//ccGAufxj.ltrans4.ltrans.o
 .data          0x0000000000000000        0x0 /var/folders/_f/jzb7lsz153bclt069nvlpp5r0000gn/T//ccGAufxj.ltrans4.ltrans.o
 .bss           0x0000000000000000        0x0 /var/folders/_f/jzb7lsz153bclt069nvlpp5r0000gn/T//ccGAufxj.ltrans4.ltrans.o
 .text          0x0000000000000000        0x0 /var/folders/_f/jzb7lsz153bclt069nvlpp5r0000gn/T//ccGAufxj.ltrans5.ltrans.o
 .data          0x0000000000000000        0x0 /var/folders/_f/jzb7lsz153bclt069nvlpp5r0000gn/T//ccGAufxj.ltrans5.ltrans.o
 .bss           0x0000000000000000        0x0 /var/folders/_f/jzb7lsz153bclt069nvlpp5r0000gn/T//ccGAufxj.ltrans5.ltrans.o
 .text          0x0000000000000000        0x0 /var/folders/_f/jzb7lsz153bclt069nvlpp5r0000gn/T//ccGAufxj.ltrans6.ltrans.o
 .data          0x0000000000000000        0x0 /var/folders/_f/jzb7lsz153bclt069nvlpp5r0000gn/T//ccGAufxj.ltrans6.ltrans.o
 .bss           0x0000000000000000        0x0 /var/folders/_f/jzb7lsz153bclt069nvlpp5r0000gn/T//ccGAufxj.ltrans6.ltrans.o
 .text          0x0000000000000000        0x0 /var/folders/_f/jzb7lsz153bclt069nvlpp5r0000gn/T//ccGAufxj.ltrans7.ltrans.o
 .data          0x0000000000000000        0x0 /var/folders/_f/jzb7lsz153bclt069nvlpp5r0000gn/T//ccGAufxj.ltrans7.ltrans.o
 .bss           0x0000000000000000        0x0 /var/folders/_f/jzb7lsz153bclt069nvlpp5r0000gn/T//ccGAufxj.ltrans7.ltrans.o
 .text          0x0000000000000000        0x0 /var/folders/_f/jzb7lsz153bclt069nvlpp5r0000gn/T//ccGAufxj.ltrans8.ltrans.o
 .data          0x0000000000000000        0x0 /var/folders/_f/jzb7lsz153bclt069nvlpp5r0000gn/T//ccGAufxj.ltrans8.ltrans.o
 .bss           0x0000000000000000        0x0 /var/folders/_f/jzb7lsz153bclt069nvlpp5r0000gn/T//ccGAufxj.ltrans8.ltrans.o
 .text._getpid  0x0000000000000000        0x4 /var/folders/_f/jzb7lsz153bclt069nvlpp5r0000gn/T//ccGAufxj.ltrans8.ltrans.o
 .text._kill    0x0000000000000000        0x8 /var/folders/_f/jzb7lsz153bclt069nvlpp5r0000gn/T//ccGAufxj.ltrans8.ltrans.o
 .text._exit    0x0000000000000000        0xc /var/folders/_f/jzb7lsz153bclt069nvlpp5r0000gn/T//ccGAufxj.ltrans8.ltrans.o
 .text._isatty_r
                0x0000000000000000        0x4 /var/folders/_f/jzb7lsz153bclt069nvlpp5r0000gn/T//ccGAufxj.ltrans8.ltrans.o
 .text._fstat_r
                0x0000000000000000       0x18 /var/folders/_f/jzb7lsz153bclt069nvlpp5r0000gn/T//ccGAufxj.ltrans8.ltrans.o
 .text._close_r
                0x0000000000000000        0x4 /var/folders/_f/jzb7lsz153bclt069nvlpp5r0000gn/T//ccGAufxj.ltrans8.ltrans.o
 .text._write_r
                0x0000000000000000        0x4 /var/folders/_f/jzb7lsz153bclt069nvlpp5r0000gn/T//ccGAufxj.ltrans8.ltrans.o
 .text._lseek_r
                0x0000000000000000        0x4 /var/folders/_f/jzb7lsz153bclt069nvlpp5r0000gn/T//ccGAufxj.ltrans8.ltrans.o
 .text._read_r  0x0000000000000000        0xc /var/folders/_f/jzb7lsz153bclt069nvlpp5r0000gn/T//ccGAufxj.ltrans8.ltrans.o
 .text          0x0000000000000000        0x0 /var/folders/_f/jzb7lsz153bclt069nvlpp5r0000gn/T//ccGAufxj.ltrans9.ltrans.o
 .data          0x0000000000000000        0x0 /var/folders/_f/jzb7lsz153bclt069nvlpp5r0000gn/T//ccGAufxj.ltrans9.ltrans.o
 .bss           0x0000000000000000        0x0 /var/folders/_f/jzb7lsz153bclt069nvlpp5r0000gn/T//ccGAufxj.ltrans9.ltrans.o
 .data          0x0000000000000000        0x0 /usr/local/Cellar/gcc-arm-none-eabi-49/20150925/bin/../lib/gcc/arm-none-eabi/4.9.3/../../../../arm-none-eabi/lib/armv7e-m/fpu/libg.a(lib_a-memcpy.o)
 .bss           0x0000000000000000        0x0 /usr/local/Cellar/gcc-arm-none-eabi-49/20150925/bin/../lib/gcc/arm-none-eabi/4.9.3/../../../../arm-none-eabi/lib/armv7e-m/fpu/libg.a(lib_a-memcpy.o)
 .text          0x0000000000000000        0x0 /usr/local/Cellar/gcc-arm-none-eabi-49/20150925/bin/../lib/gcc/arm-none-eabi/4.9.3/../../../../arm-none-eabi/lib/armv7e-m/fpu/libg.a(lib_a-memset.o)
 .data          0x0000000000000000        0x0 /usr/local/Cellar/gcc-arm-none-eabi-49/20150925/bin/../lib/gcc/arm-none-eabi/4.9.3/../../../../arm-none-eabi/lib/armv7e-m/fpu/libg.a(lib_a-memset.o)
 .bss           0x0000000000000000        0x0 /usr/local/Cellar/gcc-arm-none-eabi-49/20150925/bin/../lib/gcc/arm-none-eabi/4.9.3/../../../../arm-none-eabi/lib/armv7e-m/fpu/libg.a(lib_a-memset.o)
 .text          0x0000000000000000        0x0 /usr/local/Cellar/gcc-arm-none-eabi-49/20150925/bin/../lib/gcc/arm-none-eabi/4.9.3/../../../../arm-none-eabi/lib/armv7e-m/fpu/libg.a(lib_a-vsnprintf.o)
 .data          0x0000000000000000        0x0 /usr/local/Cellar/gcc-arm-none-eabi-49/20150925/bin/../lib/gcc/arm-none-eabi/4.9.3/../../../../arm-none-eabi/lib/armv7e-m/fpu/libg.a(lib_a-vsnprintf.o)
 .bss           0x0000000000000000        0x0 /usr/local/Cellar/gcc-arm-none-eabi-49/20150925/bin/../lib/gcc/arm-none-eabi/4.9.3/../../../../arm-none-eabi/lib/armv7e-m/fpu/libg.a(lib_a-vsnprintf.o)
 .text          0x0000000000000000        0x0 /usr/local/Cellar/gcc-arm-none-eabi-49/20150925/bin/../lib/gcc/arm-none-eabi/4.9.3/../../../../arm-none-eabi/lib/armv7e-m/fpu/libg.a(lib_a-impure.o)
 .data          0x0000000000000000        0x0 /usr/local/Cellar/gcc-arm-none-eabi-49/20150925/bin/../lib/gcc/arm-none-eabi/4.9.3/../../../../arm-none-eabi/lib/armv7e-m/fpu/libg.a(lib_a-impure.o)
 .bss           0x0000000000000000        0x0 /usr/local/Cellar/gcc-arm-none-eabi-49/20150925/bin/../lib/gcc/arm-none-eabi/4.9.3/../../../../arm-none-eabi/lib/armv7e-m/fpu/libg.a(lib_a-impure.o)
 .rodata._global_impure_ptr
                0x0000000000000000        0x4 /usr/local/Cellar/gcc-arm-none-eabi-49/20150925/bin/../lib/gcc/arm-none-eabi/4.9.3/../../../../arm-none-eabi/lib/armv7e-m/fpu/libg.a(lib_a-impure.o)
 .text          0x0000000000000000        0x0 /usr/local/Cellar/gcc-arm-none-eabi-49/20150925/bin/../lib/gcc/arm-none-eabi/4.9.3/../../../../arm-none-eabi/lib/armv7e-m/fpu/libg.a(lib_a-svfprintf.o)
 .data          0x0000000000000000        0x0 /usr/local/Cellar/gcc-arm-none-eabi-49/20150925/bin/../lib/gcc/arm-none-eabi/4.9.3/../../../../arm-none-eabi/lib/armv7e-m/fpu/libg.a(lib_a-svfprintf.o)
 .bss           0x0000000000000000        0x0 /usr/local/Cellar/gcc-arm-none-eabi-49/20150925/bin/../lib/gcc/arm-none-eabi/4.9.3/../../../../arm-none-eabi/lib/armv7e-m/fpu/libg.a(lib_a-svfprintf.o)
 .text          0x0000000000000000        0x0 /usr/local/Cellar/gcc-arm-none-eabi-49/20150925/bin/../lib/gcc/arm-none-eabi/4.9.3/../../../../arm-none-eabi/lib/armv7e-m/fpu/libg.a(lib_a-dtoa.o)
 .data          0x0000000000000000        0x0 /usr/local/Cellar/gcc-arm-none-eabi-49/20150925/bin/../lib/gcc/arm-none-eabi/4.9.3/../../../../arm-none-eabi/lib/armv7e-m/fpu/libg.a(lib_a-dtoa.o)
 .bss           0x0000000000000000        0x0 /usr/local/Cellar/gcc-arm-none-eabi-49/20150925/bin/../lib/gcc/arm-none-eabi/4.9.3/../../../../arm-none-eabi/lib/armv7e-m/fpu/libg.a(lib_a-dtoa.o)
 .text          0x0000000000000000        0x0 /usr/local/Cellar/gcc-arm-none-eabi-49/20150925/bin/../lib/gcc/arm-none-eabi/4.9.3/../../../../arm-none-eabi/lib/armv7e-m/fpu/libg.a(lib_a-locale.o)
 .data          0x0000000000000000        0x0 /usr/local/Cellar/gcc-arm-none-eabi-49/20150925/bin/../lib/gcc/arm-none-eabi/4.9.3/../../../../arm-none-eabi/lib/armv7e-m/fpu/libg.a(lib_a-locale.o)
 .bss           0x0000000000000000        0x0 /usr/local/Cellar/gcc-arm-none-eabi-49/20150925/bin/../lib/gcc/arm-none-eabi/4.9.3/../../../../arm-none-eabi/lib/armv7e-m/fpu/libg.a(lib_a-locale.o)
 .text._setlocale_r
                0x0000000000000000       0x44 /usr/local/Cellar/gcc-arm-none-eabi-49/20150925/bin/../lib/gcc/arm-none-eabi/4.9.3/../../../../arm-none-eabi/lib/armv7e-m/fpu/libg.a(lib_a-locale.o)
 .text.__locale_charset
                0x0000000000000000        0x8 /usr/local/Cellar/gcc-arm-none-eabi-49/20150925/bin/../lib/gcc/arm-none-eabi/4.9.3/../../../../arm-none-eabi/lib/armv7e-m/fpu/libg.a(lib_a-locale.o)
 .text.__locale_mb_cur_max
                0x0000000000000000        0xc /usr/local/Cellar/gcc-arm-none-eabi-49/20150925/bin/../lib/gcc/arm-none-eabi/4.9.3/../../../../arm-none-eabi/lib/armv7e-m/fpu/libg.a(lib_a-locale.o)
 .text.__locale_msgcharset
                0x0000000000000000        0x8 /usr/local/Cellar/gcc-arm-none-eabi-49/20150925/bin/../lib/gcc/arm-none-eabi/4.9.3/../../../../arm-none-eabi/lib/armv7e-m/fpu/libg.a(lib_a-locale.o)
 .text.__locale_cjk_lang
                0x0000000000000000        0x4 /usr/local/Cellar/gcc-arm-none-eabi-49/20150925/bin/../lib/gcc/arm-none-eabi/4.9.3/../../../../arm-none-eabi/lib/armv7e-m/fpu/libg.a(lib_a-locale.o)
 .text.setlocale
                0x0000000000000000       0x10 /usr/local/Cellar/gcc-arm-none-eabi-49/20150925/bin/../lib/gcc/arm-none-eabi/4.9.3/../../../../arm-none-eabi/lib/armv7e-m/fpu/libg.a(lib_a-locale.o)
 .text.localeconv
                0x0000000000000000        0x8 /usr/local/Cellar/gcc-arm-none-eabi-49/20150925/bin/../lib/gcc/arm-none-eabi/4.9.3/../../../../arm-none-eabi/lib/armv7e-m/fpu/libg.a(lib_a-locale.o)
 .data.lc_message_charset
                0x0000000000000000       0x20 /usr/local/Cellar/gcc-arm-none-eabi-49/20150925/bin/../lib/gcc/arm-none-eabi/4.9.3/../../../../arm-none-eabi/lib/armv7e-m/fpu/libg.a(lib_a-locale.o)
 .bss._PathLocale
                0x0000000000000000        0x4 /usr/local/Cellar/gcc-arm-none-eabi-49/20150925/bin/../lib/gcc/arm-none-eabi/4.9.3/../../../../arm-none-eabi/lib/armv7e-m/fpu/libg.a(lib_a-locale.o)
 .bss.__nlocale_changed
                0x0000000000000000        0x4 /usr/local/Cellar/gcc-arm-none-eabi-49/20150925/bin/../lib/gcc/arm-none-eabi/4.9.3/../../../../arm-none-eabi/lib/armv7e-m/fpu/libg.a(lib_a-locale.o)
 .bss.__mlocale_changed
                0x0000000000000000        0x4 /usr/local/Cellar/gcc-arm-none-eabi-49/20150925/bin/../lib/gcc/arm-none-eabi/4.9.3/../../../../arm-none-eabi/lib/armv7e-m/fpu/libg.a(lib_a-locale.o)
 .data.lc_ctype_charset
                0x0000000000000000       0x20 /usr/local/Cellar/gcc-arm-none-eabi-49/20150925/bin/../lib/gcc/arm-none-eabi/4.9.3/../../../../arm-none-eabi/lib/armv7e-m/fpu/libg.a(lib_a-locale.o)
 .data.__mb_cur_max
                0x0000000000000000        0x4 /usr/local/Cellar/gcc-arm-none-eabi-49/20150925/bin/../lib/gcc/arm-none-eabi/4.9.3/../../../../arm-none-eabi/lib/armv7e-m/fpu/libg.a(lib_a-locale.o)
 .text          0x0000000000000000        0x0 /usr/local/Cellar/gcc-arm-none-eabi-49/20150925/bin/../lib/gcc/arm-none-eabi/4.9.3/../../../../arm-none-eabi/lib/armv7e-m/fpu/libg.a(lib_a-mallocr.o)
 .data          0x0000000000000000        0x0 /usr/local/Cellar/gcc-arm-none-eabi-49/20150925/bin/../lib/gcc/arm-none-eabi/4.9.3/../../../../arm-none-eabi/lib/armv7e-m/fpu/libg.a(lib_a-mallocr.o)
 .bss           0x0000000000000000        0x0 /usr/local/Cellar/gcc-arm-none-eabi-49/20150925/bin/../lib/gcc/arm-none-eabi/4.9.3/../../../../arm-none-eabi/lib/armv7e-m/fpu/libg.a(lib_a-mallocr.o)
 .text          0x0000000000000000        0x0 /usr/local/Cellar/gcc-arm-none-eabi-49/20150925/bin/../lib/gcc/arm-none-eabi/4.9.3/../../../../arm-none-eabi/lib/armv7e-m/fpu/libg.a(lib_a-memchr.o)
 .data          0x0000000000000000        0x0 /usr/local/Cellar/gcc-arm-none-eabi-49/20150925/bin/../lib/gcc/arm-none-eabi/4.9.3/../../../../arm-none-eabi/lib/armv7e-m/fpu/libg.a(lib_a-memchr.o)
 .bss           0x0000000000000000        0x0 /usr/local/Cellar/gcc-arm-none-eabi-49/20150925/bin/../lib/gcc/arm-none-eabi/4.9.3/../../../../arm-none-eabi/lib/armv7e-m/fpu/libg.a(lib_a-memchr.o)
 .text          0x0000000000000000        0x0 /usr/local/Cellar/gcc-arm-none-eabi-49/20150925/bin/../lib/gcc/arm-none-eabi/4.9.3/../../../../arm-none-eabi/lib/armv7e-m/fpu/libg.a(lib_a-mlock.o)
 .data          0x0000000000000000        0x0 /usr/local/Cellar/gcc-arm-none-eabi-49/20150925/bin/../lib/gcc/arm-none-eabi/4.9.3/../../../../arm-none-eabi/lib/armv7e-m/fpu/libg.a(lib_a-mlock.o)
 .bss           0x0000000000000000        0x0 /usr/local/Cellar/gcc-arm-none-eabi-49/20150925/bin/../lib/gcc/arm-none-eabi/4.9.3/../../../../arm-none-eabi/lib/armv7e-m/fpu/libg.a(lib_a-mlock.o)
 .text          0x0000000000000000        0x0 /usr/local/Cellar/gcc-arm-none-eabi-49/20150925/bin/../lib/gcc/arm-none-eabi/4.9.3/../../../../arm-none-eabi/lib/armv7e-m/fpu/libg.a(lib_a-mprec.o)
 .data          0x0000000000000000        0x0 /usr/local/Cellar/gcc-arm-none-eabi-49/20150925/bin/../lib/gcc/arm-none-eabi/4.9.3/../../../../arm-none-eabi/lib/armv7e-m/fpu/libg.a(lib_a-mprec.o)
 .bss           0x0000000000000000        0x0 /usr/local/Cellar/gcc-arm-none-eabi-49/20150925/bin/../lib/gcc/arm-none-eabi/4.9.3/../../../../arm-none-eabi/lib/armv7e-m/fpu/libg.a(lib_a-mprec.o)
 .text.__s2b    0x0000000000000000       0x98 /usr/local/Cellar/gcc-arm-none-eabi-49/20150925/bin/../lib/gcc/arm-none-eabi/4.9.3/../../../../arm-none-eabi/lib/armv7e-m/fpu/libg.a(lib_a-mprec.o)
 .text.__ulp    0x0000000000000000       0x50 /usr/local/Cellar/gcc-arm-none-eabi-49/20150925/bin/../lib/gcc/arm-none-eabi/4.9.3/../../../../arm-none-eabi/lib/armv7e-m/fpu/libg.a(lib_a-mprec.o)
 .text.__b2d    0x0000000000000000       0xc4 /usr/local/Cellar/gcc-arm-none-eabi-49/20150925/bin/../lib/gcc/arm-none-eabi/4.9.3/../../../../arm-none-eabi/lib/armv7e-m/fpu/libg.a(lib_a-mprec.o)
 .text.__ratio  0x0000000000000000       0x60 /usr/local/Cellar/gcc-arm-none-eabi-49/20150925/bin/../lib/gcc/arm-none-eabi/4.9.3/../../../../arm-none-eabi/lib/armv7e-m/fpu/libg.a(lib_a-mprec.o)
 .text._mprec_log10
                0x0000000000000000       0x38 /usr/local/Cellar/gcc-arm-none-eabi-49/20150925/bin/../lib/gcc/arm-none-eabi/4.9.3/../../../../arm-none-eabi/lib/armv7e-m/fpu/libg.a(lib_a-mprec.o)
 .text.__copybits
                0x0000000000000000       0x48 /usr/local/Cellar/gcc-arm-none-eabi-49/20150925/bin/../lib/gcc/arm-none-eabi/4.9.3/../../../../arm-none-eabi/lib/armv7e-m/fpu/libg.a(lib_a-mprec.o)
 .text.__any_on
                0x0000000000000000       0x60 /usr/local/Cellar/gcc-arm-none-eabi-49/20150925/bin/../lib/gcc/arm-none-eabi/4.9.3/../../../../arm-none-eabi/lib/armv7e-m/fpu/libg.a(lib_a-mprec.o)
 .rodata.__mprec_tinytens
                0x0000000000000000       0x28 /usr/local/Cellar/gcc-arm-none-eabi-49/20150925/bin/../lib/gcc/arm-none-eabi/4.9.3/../../../../arm-none-eabi/lib/armv7e-m/fpu/libg.a(lib_a-mprec.o)
 .text          0x0000000000000000        0x0 /usr/local/Cellar/gcc-arm-none-eabi-49/20150925/bin/../lib/gcc/arm-none-eabi/4.9.3/../../../../arm-none-eabi/lib/armv7e-m/fpu/libg.a(lib_a-s_fpclassify.o)
 .data          0x0000000000000000        0x0 /usr/local/Cellar/gcc-arm-none-eabi-49/20150925/bin/../lib/gcc/arm-none-eabi/4.9.3/../../../../arm-none-eabi/lib/armv7e-m/fpu/libg.a(lib_a-s_fpclassify.o)
 .bss           0x0000000000000000        0x0 /usr/local/Cellar/gcc-arm-none-eabi-49/20150925/bin/../lib/gcc/arm-none-eabi/4.9.3/../../../../arm-none-eabi/lib/armv7e-m/fpu/libg.a(lib_a-s_fpclassify.o)
 .text          0x0000000000000000      0x2dc /usr/local/Cellar/gcc-arm-none-eabi-49/20150925/bin/../lib/gcc/arm-none-eabi/4.9.3/../../../../arm-none-eabi/lib/armv7e-m/fpu/libg.a(lib_a-strcmp.o)
 .data          0x0000000000000000        0x0 /usr/local/Cellar/gcc-arm-none-eabi-49/20150925/bin/../lib/gcc/arm-none-eabi/4.9.3/../../../../arm-none-eabi/lib/armv7e-m/fpu/libg.a(lib_a-strcmp.o)
 .bss           0x0000000000000000        0x0 /usr/local/Cellar/gcc-arm-none-eabi-49/20150925/bin/../lib/gcc/arm-none-eabi/4.9.3/../../../../arm-none-eabi/lib/armv7e-m/fpu/libg.a(lib_a-strcmp.o)
 .eh_frame      0x0000000000000000       0x70 /usr/local/Cellar/gcc-arm-none-eabi-49/20150925/bin/../lib/gcc/arm-none-eabi/4.9.3/../../../../arm-none-eabi/lib/armv7e-m/fpu/libg.a(lib_a-strcmp.o)
 .ARM.attributes
                0x0000000000000000       0x20 /usr/local/Cellar/gcc-arm-none-eabi-49/20150925/bin/../lib/gcc/arm-none-eabi/4.9.3/../../../../arm-none-eabi/lib/armv7e-m/fpu/libg.a(lib_a-strcmp.o)
 .text          0x0000000000000000        0x0 /usr/local/Cellar/gcc-arm-none-eabi-49/20150925/bin/../lib/gcc/arm-none-eabi/4.9.3/../../../../arm-none-eabi/lib/armv7e-m/fpu/libg.a(lib_a-strlen.o)
 .data          0x0000000000000000        0x0 /usr/local/Cellar/gcc-arm-none-eabi-49/20150925/bin/../lib/gcc/arm-none-eabi/4.9.3/../../../../arm-none-eabi/lib/armv7e-m/fpu/libg.a(lib_a-strlen.o)
 .bss           0x0000000000000000        0x0 /usr/local/Cellar/gcc-arm-none-eabi-49/20150925/bin/../lib/gcc/arm-none-eabi/4.9.3/../../../../arm-none-eabi/lib/armv7e-m/fpu/libg.a(lib_a-strlen.o)
 .text          0x0000000000000000        0x0 /usr/local/Cellar/gcc-arm-none-eabi-49/20150925/bin/../lib/gcc/arm-none-eabi/4.9.3/../../../../arm-none-eabi/lib/armv7e-m/fpu/libg.a(lib_a-svfiprintf.o)
 .data          0x0000000000000000        0x0 /usr/local/Cellar/gcc-arm-none-eabi-49/20150925/bin/../lib/gcc/arm-none-eabi/4.9.3/../../../../arm-none-eabi/lib/armv7e-m/fpu/libg.a(lib_a-svfiprintf.o)
 .bss           0x0000000000000000        0x0 /usr/local/Cellar/gcc-arm-none-eabi-49/20150925/bin/../lib/gcc/arm-none-eabi/4.9.3/../../../../arm-none-eabi/lib/armv7e-m/fpu/libg.a(lib_a-svfiprintf.o)
 .text._svfiprintf_r
                0x0000000000000000      0xaa0 /usr/local/Cellar/gcc-arm-none-eabi-49/20150925/bin/../lib/gcc/arm-none-eabi/4.9.3/../../../../arm-none-eabi/lib/armv7e-m/fpu/libg.a(lib_a-svfiprintf.o)
 .rodata.blanks.6854
                0x0000000000000000       0x10 /usr/local/Cellar/gcc-arm-none-eabi-49/20150925/bin/../lib/gcc/arm-none-eabi/4.9.3/../../../../arm-none-eabi/lib/armv7e-m/fpu/libg.a(lib_a-svfiprintf.o)
 .rodata.str1.4
                0x0000000000000000       0x2f /usr/local/Cellar/gcc-arm-none-eabi-49/20150925/bin/../lib/gcc/arm-none-eabi/4.9.3/../../../../arm-none-eabi/lib/armv7e-m/fpu/libg.a(lib_a-svfiprintf.o)
 .rodata.zeroes.6855
                0x0000000000000000       0x10 /usr/local/Cellar/gcc-arm-none-eabi-49/20150925/bin/../lib/gcc/arm-none-eabi/4.9.3/../../../../arm-none-eabi/lib/armv7e-m/fpu/libg.a(lib_a-svfiprintf.o)
 .text          0x0000000000000000        0x0 /usr/local/Cellar/gcc-arm-none-eabi-49/20150925/bin/../lib/gcc/arm-none-eabi/4.9.3/../../../../arm-none-eabi/lib/armv7e-m/fpu/libg.a(lib_a-callocr.o)
 .data          0x0000000000000000        0x0 /usr/local/Cellar/gcc-arm-none-eabi-49/20150925/bin/../lib/gcc/arm-none-eabi/4.9.3/../../../../arm-none-eabi/lib/armv7e-m/fpu/libg.a(lib_a-callocr.o)
 .bss           0x0000000000000000        0x0 /usr/local/Cellar/gcc-arm-none-eabi-49/20150925/bin/../lib/gcc/arm-none-eabi/4.9.3/../../../../arm-none-eabi/lib/armv7e-m/fpu/libg.a(lib_a-callocr.o)
 .text          0x0000000000000000        0x0 /usr/local/Cellar/gcc-arm-none-eabi-49/20150925/bin/../lib/gcc/arm-none-eabi/4.9.3/../../../../arm-none-eabi/lib/armv7e-m/fpu/libg.a(lib_a-freer.o)
 .data          0x0000000000000000        0x0 /usr/local/Cellar/gcc-arm-none-eabi-49/20150925/bin/../lib/gcc/arm-none-eabi/4.9.3/../../../../arm-none-eabi/lib/armv7e-m/fpu/libg.a(lib_a-freer.o)
 .bss           0x0000000000000000        0x0 /usr/local/Cellar/gcc-arm-none-eabi-49/20150925/bin/../lib/gcc/arm-none-eabi/4.9.3/../../../../arm-none-eabi/lib/armv7e-m/fpu/libg.a(lib_a-freer.o)
 .text          0x0000000000000000        0x0 /usr/local/Cellar/gcc-arm-none-eabi-49/20150925/bin/../lib/gcc/arm-none-eabi/4.9.3/../../../../arm-none-eabi/lib/armv7e-m/fpu/libg.a(lib_a-memmove.o)
 .data          0x0000000000000000        0x0 /usr/local/Cellar/gcc-arm-none-eabi-49/20150925/bin/../lib/gcc/arm-none-eabi/4.9.3/../../../../arm-none-eabi/lib/armv7e-m/fpu/libg.a(lib_a-memmove.o)
 .bss           0x0000000000000000        0x0 /usr/local/Cellar/gcc-arm-none-eabi-49/20150925/bin/../lib/gcc/arm-none-eabi/4.9.3/../../../../arm-none-eabi/lib/armv7e-m/fpu/libg.a(lib_a-memmove.o)
 .text          0x0000000000000000        0x0 /usr/local/Cellar/gcc-arm-none-eabi-49/20150925/bin/../lib/gcc/arm-none-eabi/4.9.3/../../../../arm-none-eabi/lib/armv7e-m/fpu/libg.a(lib_a-reallocr.o)
 .data          0x0000000000000000        0x0 /usr/local/Cellar/gcc-arm-none-eabi-49/20150925/bin/../lib/gcc/arm-none-eabi/4.9.3/../../../../arm-none-eabi/lib/armv7e-m/fpu/libg.a(lib_a-reallocr.o)
 .bss           0x0000000000000000        0x0 /usr/local/Cellar/gcc-arm-none-eabi-49/20150925/bin/../lib/gcc/arm-none-eabi/4.9.3/../../../../arm-none-eabi/lib/armv7e-m/fpu/libg.a(lib_a-reallocr.o)
 .text          0x0000000000000000        0x0 ./build/obj/hal.o (symbol from plugin)
 .text          0x0000000000000000        0x0 ./build/obj/hal_st.o (symbol from plugin)
 .text          0x0000000000000000        0x0 ./build/obj/hal_buffers.o (symbol from plugin)
 .text          0x0000000000000000        0x0 ./build/obj/hal_queues.o (symbol from plugin)
 .text          0x0000000000000000        0x0 ./build/obj/hal_flash.o (symbol from plugin)
 .text          0x0000000000000000        0x0 ./build/obj/hal_mmcsd.o (symbol from plugin)
 .text          0x0000000000000000        0x0 ./build/obj/hal_dac.o (symbol from plugin)
 .text          0x0000000000000000        0x0 ./build/obj/hal_pal.o (symbol from plugin)
 .text          0x0000000000000000        0x0 ./build/obj/hal_serial_usb.o (symbol from plugin)
 .text          0x0000000000000000        0x0 ./build/obj/hal_usb.o (symbol from plugin)
 .text          0x0000000000000000        0x0 ./build/obj/nvic.o (symbol from plugin)
 .text          0x0000000000000000        0x0 ./build/obj/stm32_isr.o (symbol from plugin)
 .text          0x0000000000000000        0x0 ./build/obj/hal_lld.o (symbol from plugin)
 .text          0x0000000000000000        0x0 ./build/obj/hal_efl_lld.o (symbol from plugin)
 .text          0x0000000000000000        0x0 ./build/obj/hal_dac_lld.o (symbol from plugin)
 .text          0x0000000000000000        0x0 ./build/obj/stm32_dma.o (symbol from plugin)
 .text          0x0000000000000000        0x0 ./build/obj/stm32_exti.o (symbol from plugin)
 .text          0x0000000000000000        0x0 ./build/obj/hal_pal_lld.o (symbol from plugin)
 .text          0x0000000000000000        0x0 ./build/obj/hal_usb_lld.o (symbol from plugin)
 .text          0x0000000000000000        0x0 ./build/obj/hal_st_lld.o (symbol from plugin)
 .text          0x0000000000000000        0x0 ./build/obj/board.o (symbol from plugin)
 .text          0x0000000000000000        0x0 ./build/obj/osal.o (symbol from plugin)
 .text          0x0000000000000000        0x0 ./build/obj/chprintf.o (symbol from plugin)
 .text          0x0000000000000000        0x0 ./build/obj/memstreams.o (symbol from plugin)
 .text          0x0000000000000000        0x0 ./build/obj/nullstreams.o (symbol from plugin)
 .text          0x0000000000000000        0x0 ./build/obj/chsys.o (symbol from plugin)
 .text          0x0000000000000000        0x0 ./build/obj/chdebug.o (symbol from plugin)
 .text          0x0000000000000000        0x0 ./build/obj/chtrace.o (symbol from plugin)
 .text          0x0000000000000000        0x0 ./build/obj/chvt.o (symbol from plugin)
 .text          0x0000000000000000        0x0 ./build/obj/chschd.o (symbol from plugin)
 .text          0x0000000000000000        0x0 ./build/obj/chthreads.o (symbol from plugin)
 .text          0x0000000000000000        0x0 ./build/obj/chtm.o (symbol from plugin)
 .text          0x0000000000000000        0x0 ./build/obj/chregistry.o (symbol from plugin)
 .text          0x0000000000000000        0x0 ./build/obj/chsem.o (symbol from plugin)
 .text          0x0000000000000000        0x0 ./build/obj/chmtx.o (symbol from plugin)
 .text          0x0000000000000000        0x0 ./build/obj/chcond.o (symbol from plugin)
 .text          0x0000000000000000        0x0 ./build/obj/chevents.o (symbol from plugin)
 .text          0x0000000000000000        0x0 ./build/obj/chmsg.o (symbol from plugin)
 .text          0x0000000000000000        0x0 ./build/obj/chdynamic.o (symbol from plugin)
 .text          0x0000000000000000        0x0 ./build/obj/chmboxes.o (symbol from plugin)
 .text          0x0000000000000000        0x0 ./build/obj/chmemcore.o (symbol from plugin)
 .text          0x0000000000000000        0x0 ./build/obj/chmemheaps.o (symbol from plugin)
 .text          0x0000000000000000        0x0 ./build/obj/chmempools.o (symbol from plugin)
 .text          0x0000000000000000        0x0 ./build/obj/chpipes.o (symbol from plugin)
 .text          0x0000000000000000        0x0 ./build/obj/chobjcaches.o (symbol from plugin)
 .text          0x0000000000000000        0x0 ./build/obj/chdelegates.o (symbol from plugin)
 .text          0x0000000000000000        0x0 ./build/obj/chfactory.o (symbol from plugin)
 .text          0x0000000000000000        0x0 ./build/obj/chcore.o (symbol from plugin)
 .text          0x0000000000000000        0x0 ./build/obj/chcore_v7m.o (symbol from plugin)
 .text          0x0000000000000000        0x0 ./build/obj/CAM.o (symbol from plugin)
 .text          0x0000000000000000        0x0 ./build/obj/channel.o (symbol from plugin)
 .text          0x0000000000000000        0x0 ./build/obj/chan_recv_queue.o (symbol from plugin)
 .text          0x0000000000000000        0x0 ./build/obj/chan_send_queue.o (symbol from plugin)
 .text          0x0000000000000000        0x0 ./build/obj/event.o (symbol from plugin)
 .text          0x0000000000000000        0x0 ./build/obj/heap.o (symbol from plugin)
 .text          0x0000000000000000        0x0 ./build/obj/queue.o (symbol from plugin)
 .text          0x0000000000000000        0x0 ./build/obj/RTS.o (symbol from plugin)
 .text          0x0000000000000000        0x0 ./build/obj/scheduler.o (symbol from plugin)
 .text          0x0000000000000000        0x0 ./build/obj/stack.o (symbol from plugin)
 .text          0x0000000000000000        0x0 ./build/obj/VMC.o (symbol from plugin)
 .text          0x0000000000000000        0x0 ./build/obj/priorityqueue.o (symbol from plugin)
 .text          0x0000000000000000        0x0 ./build/obj/ll_driver.o (symbol from plugin)
 .text          0x0000000000000000        0x0 ./build/obj/button.o (symbol from plugin)
 .text          0x0000000000000000        0x0 ./build/obj/led.o (symbol from plugin)
 .text          0x0000000000000000        0x0 ./build/obj/gpio.o (symbol from plugin)
 .text          0x0000000000000000        0x0 ./build/obj/dac.o (symbol from plugin)
 .text          0x0000000000000000        0x0 ./build/obj/sys_time.o (symbol from plugin)
 .text          0x0000000000000000        0x0 ./build/obj/usbcfg.o (symbol from plugin)
 .text          0x0000000000000000        0x0 ./build/obj/svm_chibios.o (symbol from plugin)
 .text          0x0000000000000000        0x0 ./build/obj/svm_chibios_main.o (symbol from plugin)
 .text          0x0000000000000000        0x0 ./build/obj/syscalls.o (symbol from plugin)
 .data          0x0000000000000000        0x0 /usr/local/Cellar/gcc-arm-none-eabi-49/20150925/bin/../lib/gcc/arm-none-eabi/4.9.3/armv7e-m/fpu/libgcc.a(_arm_addsubdf3.o)
 .bss           0x0000000000000000        0x0 /usr/local/Cellar/gcc-arm-none-eabi-49/20150925/bin/../lib/gcc/arm-none-eabi/4.9.3/armv7e-m/fpu/libgcc.a(_arm_addsubdf3.o)
 .data          0x0000000000000000        0x0 /usr/local/Cellar/gcc-arm-none-eabi-49/20150925/bin/../lib/gcc/arm-none-eabi/4.9.3/armv7e-m/fpu/libgcc.a(_arm_muldivdf3.o)
 .bss           0x0000000000000000        0x0 /usr/local/Cellar/gcc-arm-none-eabi-49/20150925/bin/../lib/gcc/arm-none-eabi/4.9.3/armv7e-m/fpu/libgcc.a(_arm_muldivdf3.o)
 .data          0x0000000000000000        0x0 /usr/local/Cellar/gcc-arm-none-eabi-49/20150925/bin/../lib/gcc/arm-none-eabi/4.9.3/armv7e-m/fpu/libgcc.a(_arm_cmpdf2.o)
 .bss           0x0000000000000000        0x0 /usr/local/Cellar/gcc-arm-none-eabi-49/20150925/bin/../lib/gcc/arm-none-eabi/4.9.3/armv7e-m/fpu/libgcc.a(_arm_cmpdf2.o)
 .data          0x0000000000000000        0x0 /usr/local/Cellar/gcc-arm-none-eabi-49/20150925/bin/../lib/gcc/arm-none-eabi/4.9.3/armv7e-m/fpu/libgcc.a(_arm_fixdfsi.o)
 .bss           0x0000000000000000        0x0 /usr/local/Cellar/gcc-arm-none-eabi-49/20150925/bin/../lib/gcc/arm-none-eabi/4.9.3/armv7e-m/fpu/libgcc.a(_arm_fixdfsi.o)
 .data          0x0000000000000000        0x0 /usr/local/Cellar/gcc-arm-none-eabi-49/20150925/bin/../lib/gcc/arm-none-eabi/4.9.3/armv7e-m/fpu/libgcc.a(_aeabi_uldivmod.o)
 .bss           0x0000000000000000        0x0 /usr/local/Cellar/gcc-arm-none-eabi-49/20150925/bin/../lib/gcc/arm-none-eabi/4.9.3/armv7e-m/fpu/libgcc.a(_aeabi_uldivmod.o)
 .data          0x0000000000000000        0x0 /usr/local/Cellar/gcc-arm-none-eabi-49/20150925/bin/../lib/gcc/arm-none-eabi/4.9.3/armv7e-m/fpu/libgcc.a(bpabi.o)
 .bss           0x0000000000000000        0x0 /usr/local/Cellar/gcc-arm-none-eabi-49/20150925/bin/../lib/gcc/arm-none-eabi/4.9.3/armv7e-m/fpu/libgcc.a(bpabi.o)
 .data          0x0000000000000000        0x0 /usr/local/Cellar/gcc-arm-none-eabi-49/20150925/bin/../lib/gcc/arm-none-eabi/4.9.3/armv7e-m/fpu/libgcc.a(_dvmd_tls.o)
 .bss           0x0000000000000000        0x0 /usr/local/Cellar/gcc-arm-none-eabi-49/20150925/bin/../lib/gcc/arm-none-eabi/4.9.3/armv7e-m/fpu/libgcc.a(_dvmd_tls.o)
 .data          0x0000000000000000        0x0 /usr/local/Cellar/gcc-arm-none-eabi-49/20150925/bin/../lib/gcc/arm-none-eabi/4.9.3/armv7e-m/fpu/libgcc.a(_divdi3.o)
 .bss           0x0000000000000000        0x0 /usr/local/Cellar/gcc-arm-none-eabi-49/20150925/bin/../lib/gcc/arm-none-eabi/4.9.3/armv7e-m/fpu/libgcc.a(_divdi3.o)
 .ARM.extab     0x0000000000000000        0x0 /usr/local/Cellar/gcc-arm-none-eabi-49/20150925/bin/../lib/gcc/arm-none-eabi/4.9.3/armv7e-m/fpu/libgcc.a(_divdi3.o)
 .data          0x0000000000000000        0x0 /usr/local/Cellar/gcc-arm-none-eabi-49/20150925/bin/../lib/gcc/arm-none-eabi/4.9.3/armv7e-m/fpu/libgcc.a(_udivdi3.o)
 .bss           0x0000000000000000        0x0 /usr/local/Cellar/gcc-arm-none-eabi-49/20150925/bin/../lib/gcc/arm-none-eabi/4.9.3/armv7e-m/fpu/libgcc.a(_udivdi3.o)
 .ARM.extab     0x0000000000000000        0x0 /usr/local/Cellar/gcc-arm-none-eabi-49/20150925/bin/../lib/gcc/arm-none-eabi/4.9.3/armv7e-m/fpu/libgcc.a(_udivdi3.o)

Memory Configuration

Name             Origin             Length             Attributes
flash0           0x0000000008000000 0x0000000000100000 xr
flash1           0x0000000000000000 0x0000000000000000 xr
flash2           0x0000000000000000 0x0000000000000000 xr
flash3           0x0000000000000000 0x0000000000000000 xr
flash4           0x0000000000000000 0x0000000000000000 xr
flash5           0x0000000000000000 0x0000000000000000 xr
flash6           0x0000000000000000 0x0000000000000000 xr
flash7           0x0000000000000000 0x0000000000000000 xr
ram0             0x0000000020000000 0x0000000000020000 xw
ram1             0x0000000020000000 0x000000000001c000 xw
ram2             0x000000002001c000 0x0000000000004000 xw
ram3             0x0000000000000000 0x0000000000000000 xw
ram4             0x0000000010000000 0x0000000000010000 xw
ram5             0x0000000040024000 0x0000000000001000 xw
ram6             0x0000000000000000 0x0000000000000000 xw
ram7             0x0000000000000000 0x0000000000000000 xw
*default*        0x0000000000000000 0xffffffffffffffff

Linker script and memory map

LOAD ./build/obj/crt0_v7m.o
LOAD ./build/obj/vectors.o
LOAD ./build/obj/chcoreasm_v7m.o
LOAD ./build/obj/crt1.o
LOAD /var/folders/_f/jzb7lsz153bclt069nvlpp5r0000gn/T//ccGAufxj.ltrans0.ltrans.o
LOAD /var/folders/_f/jzb7lsz153bclt069nvlpp5r0000gn/T//ccGAufxj.ltrans1.ltrans.o
LOAD /var/folders/_f/jzb7lsz153bclt069nvlpp5r0000gn/T//ccGAufxj.ltrans2.ltrans.o
LOAD /var/folders/_f/jzb7lsz153bclt069nvlpp5r0000gn/T//ccGAufxj.ltrans3.ltrans.o
LOAD /var/folders/_f/jzb7lsz153bclt069nvlpp5r0000gn/T//ccGAufxj.ltrans4.ltrans.o
LOAD /var/folders/_f/jzb7lsz153bclt069nvlpp5r0000gn/T//ccGAufxj.ltrans5.ltrans.o
LOAD /var/folders/_f/jzb7lsz153bclt069nvlpp5r0000gn/T//ccGAufxj.ltrans6.ltrans.o
LOAD /var/folders/_f/jzb7lsz153bclt069nvlpp5r0000gn/T//ccGAufxj.ltrans7.ltrans.o
LOAD /var/folders/_f/jzb7lsz153bclt069nvlpp5r0000gn/T//ccGAufxj.ltrans8.ltrans.o
LOAD /var/folders/_f/jzb7lsz153bclt069nvlpp5r0000gn/T//ccGAufxj.ltrans9.ltrans.o
LOAD /usr/local/Cellar/gcc-arm-none-eabi-49/20150925/bin/../lib/gcc/arm-none-eabi/4.9.3/armv7e-m/fpu/libgcc.a
LOAD /usr/local/Cellar/gcc-arm-none-eabi-49/20150925/bin/../lib/gcc/arm-none-eabi/4.9.3/../../../../arm-none-eabi/lib/armv7e-m/fpu/libg.a
LOAD /usr/local/Cellar/gcc-arm-none-eabi-49/20150925/bin/../lib/gcc/arm-none-eabi/4.9.3/../../../../arm-none-eabi/lib/armv7e-m/fpu/libc.a
LOAD ./build/obj/hal.o
LOAD ./build/obj/hal_st.o
LOAD ./build/obj/hal_buffers.o
LOAD ./build/obj/hal_queues.o
LOAD ./build/obj/hal_flash.o
LOAD ./build/obj/hal_mmcsd.o
LOAD ./build/obj/hal_dac.o
LOAD ./build/obj/hal_pal.o
LOAD ./build/obj/hal_serial_usb.o
LOAD ./build/obj/hal_usb.o
LOAD ./build/obj/nvic.o
LOAD ./build/obj/stm32_isr.o
LOAD ./build/obj/hal_lld.o
LOAD ./build/obj/hal_efl_lld.o
LOAD ./build/obj/hal_dac_lld.o
LOAD ./build/obj/stm32_dma.o
LOAD ./build/obj/stm32_exti.o
LOAD ./build/obj/hal_pal_lld.o
LOAD ./build/obj/hal_usb_lld.o
LOAD ./build/obj/hal_st_lld.o
LOAD ./build/obj/board.o
LOAD ./build/obj/osal.o
LOAD ./build/obj/chprintf.o
LOAD ./build/obj/memstreams.o
LOAD ./build/obj/nullstreams.o
LOAD ./build/obj/chsys.o
LOAD ./build/obj/chdebug.o
LOAD ./build/obj/chtrace.o
LOAD ./build/obj/chvt.o
LOAD ./build/obj/chschd.o
LOAD ./build/obj/chthreads.o
LOAD ./build/obj/chtm.o
LOAD ./build/obj/chregistry.o
LOAD ./build/obj/chsem.o
LOAD ./build/obj/chmtx.o
LOAD ./build/obj/chcond.o
LOAD ./build/obj/chevents.o
LOAD ./build/obj/chmsg.o
LOAD ./build/obj/chdynamic.o
LOAD ./build/obj/chmboxes.o
LOAD ./build/obj/chmemcore.o
LOAD ./build/obj/chmemheaps.o
LOAD ./build/obj/chmempools.o
LOAD ./build/obj/chpipes.o
LOAD ./build/obj/chobjcaches.o
LOAD ./build/obj/chdelegates.o
LOAD ./build/obj/chfactory.o
LOAD ./build/obj/chcore.o
LOAD ./build/obj/chcore_v7m.o
LOAD ./build/obj/CAM.o
LOAD ./build/obj/channel.o
LOAD ./build/obj/chan_recv_queue.o
LOAD ./build/obj/chan_send_queue.o
LOAD ./build/obj/event.o
LOAD ./build/obj/heap.o
LOAD ./build/obj/queue.o
LOAD ./build/obj/RTS.o
LOAD ./build/obj/scheduler.o
LOAD ./build/obj/stack.o
LOAD ./build/obj/VMC.o
LOAD ./build/obj/priorityqueue.o
LOAD ./build/obj/ll_driver.o
LOAD ./build/obj/button.o
LOAD ./build/obj/led.o
LOAD ./build/obj/gpio.o
LOAD ./build/obj/dac.o
LOAD ./build/obj/sys_time.o
LOAD ./build/obj/usbcfg.o
LOAD ./build/obj/svm_chibios.o
LOAD ./build/obj/svm_chibios_main.o
LOAD ./build/obj/syscalls.o

.mstack         0x0000000020000000      0x400
                0x0000000020000000                . = ALIGN (0x8)
                0x0000000020000000                __main_stack_base__ = .
                0x0000000020000400                . = (. + __main_stack_size__)
 *fill*         0x0000000020000000      0x400 
                0x0000000020000400                . = ALIGN (0x8)
                0x0000000020000400                __main_stack_end__ = .

.pstack         0x0000000020000400      0x400
                0x0000000020000400                . = ALIGN (0x8)
                0x0000000020000400                __process_stack_base__ = .
                0x0000000020000400                __main_thread_stack_base__ = .
                0x0000000020000800                . = (. + __process_stack_size__)
 *fill*         0x0000000020000400      0x400 
                0x0000000020000800                . = ALIGN (0x8)
                0x0000000020000800                __process_stack_end__ = .
                0x0000000020000800                __main_thread_stack_end__ = .

.vectors        0x0000000008000000      0x1e0
 *(.vectors)
 .vectors       0x0000000008000000      0x1e0 ./build/obj/vectors.o
                0x0000000008000000                _vectors

.xtors          0x00000000080001e0        0x0
                0x00000000080001e0                __init_array_base__ = .
 *(SORT(.init_array.*))
 *(.init_array)
                0x00000000080001e0                __init_array_end__ = .
                0x00000000080001e0                __fini_array_base__ = .
 *(.fini_array)
 *(SORT(.fini_array.*))
                0x00000000080001e0                __fini_array_end__ = .

.text           0x00000000080001e0     0xc5a4
                0x00000000080001e0                __text_base__ = .
 *(.text)
 .text          0x00000000080001e0      0x120 ./build/obj/crt0_v7m.o
                0x00000000080001e0                _crt0_entry
 .text          0x0000000008000300        0x8 ./build/obj/vectors.o
                0x0000000008000300                Reset_Handler
                0x0000000008000302                VectorAC
                0x0000000008000302                DebugMon_Handler
                0x0000000008000302                Vector1A0
                0x0000000008000302                Vector11C
                0x0000000008000302                HardFault_Handler
                0x0000000008000302                Vector1B8
                0x0000000008000302                Vector19C
                0x0000000008000302                Vector8C
                0x0000000008000302                SysTick_Handler
                0x0000000008000302                VectorDC
                0x0000000008000302                PendSV_Handler
                0x0000000008000302                Vector168
                0x0000000008000302                NMI_Handler
                0x0000000008000302                Vector110
                0x0000000008000302                Vector1D8
                0x0000000008000302                VectorC8
                0x0000000008000302                Vector94
                0x0000000008000302                VectorA8
                0x0000000008000302                VectorB4
                0x0000000008000302                Vector160
                0x0000000008000302                Vector1B0
                0x0000000008000302                UsageFault_Handler
                0x0000000008000302                VectorEC
                0x0000000008000302                Vector40
                0x0000000008000302                VectorF8
                0x0000000008000302                VectorBC
                0x0000000008000302                Vector190
                0x0000000008000302                Vector1C4
                0x0000000008000302                Vector1CC
                0x0000000008000302                Vector148
                0x0000000008000302                Vector188
                0x0000000008000302                Vector198
                0x0000000008000302                Vector118
                0x0000000008000302                VectorCC
                0x0000000008000302                Vector54
                0x0000000008000302                Vector98
                0x0000000008000302                VectorD8
                0x0000000008000302                Vector138
                0x0000000008000302                Vector24
                0x0000000008000302                Vector1AC
                0x0000000008000302                Vector178
                0x0000000008000302                Vector1A4
                0x0000000008000302                VectorD0
                0x0000000008000302                Vector1B4
                0x0000000008000302                Vector140
                0x0000000008000302                VectorE4
                0x0000000008000302                VectorC0
                0x0000000008000302                Vector1C0
                0x0000000008000302                Vector134
                0x0000000008000302                Vector1D0
                0x0000000008000302                VectorF0
                0x0000000008000302                Vector13C
                0x0000000008000302                Vector100
                0x0000000008000302                VectorF4
                0x0000000008000302                MemManage_Handler
                0x0000000008000302                VectorA0
                0x0000000008000302                VectorC4
                0x0000000008000302                Vector180
                0x0000000008000302                Vector90
                0x0000000008000302                Vector114
                0x0000000008000302                Vector164
                0x0000000008000302                Vector1C
                0x0000000008000302                Vector1BC
                0x0000000008000302                Vector1D4
                0x0000000008000302                Vector17C
                0x0000000008000302                Vector48
                0x0000000008000302                Vector1A8
                0x0000000008000302                Vector16C
                0x0000000008000302                VectorD4
                0x0000000008000302                Vector4C
                0x0000000008000302                Vector144
                0x0000000008000302                Vector15C
                0x0000000008000302                Vector18C
                0x0000000008000302                VectorE8
                0x0000000008000302                Vector170
                0x0000000008000302                Vector88
                0x0000000008000302                Vector104
                0x0000000008000302                Vector184
                0x0000000008000302                Vector10C
                0x0000000008000302                BusFault_Handler
                0x0000000008000302                Vector50
                0x0000000008000302                Vector1C8
                0x0000000008000302                Vector194
                0x0000000008000302                Vector1DC
                0x0000000008000302                Vector44
                0x0000000008000302                Vector28
                0x0000000008000302                VectorB8
                0x0000000008000302                Vector34
                0x0000000008000302                VectorA4
                0x0000000008000302                Vector20
                0x0000000008000306                _unhandled_exception
 .text          0x0000000008000308       0x3e ./build/obj/chcoreasm_v7m.o
                0x0000000008000308                _port_switch
                0x0000000008000320                _port_thread_start
                0x0000000008000336                _port_switch_from_isr
                0x0000000008000342                _port_exit_from_isr
 *fill*         0x0000000008000346        0x2 
 .text          0x0000000008000348      0x134 /usr/local/Cellar/gcc-arm-none-eabi-49/20150925/bin/../lib/gcc/arm-none-eabi/4.9.3/../../../../arm-none-eabi/lib/armv7e-m/fpu/libg.a(lib_a-memcpy.o)
                0x0000000008000348                memcpy
 .text          0x000000000800047c      0x370 /usr/local/Cellar/gcc-arm-none-eabi-49/20150925/bin/../lib/gcc/arm-none-eabi/4.9.3/armv7e-m/fpu/libgcc.a(_arm_addsubdf3.o)
                0x000000000800047c                __aeabi_drsub
                0x0000000008000484                __subdf3
                0x0000000008000484                __aeabi_dsub
                0x0000000008000488                __aeabi_dadd
                0x0000000008000488                __adddf3
                0x0000000008000700                __aeabi_ui2d
                0x0000000008000700                __floatunsidf
                0x0000000008000720                __floatsidf
                0x0000000008000720                __aeabi_i2d
                0x0000000008000744                __extendsfdf2
                0x0000000008000744                __aeabi_f2d
                0x0000000008000780                __aeabi_ul2d
                0x0000000008000780                __floatundidf
                0x0000000008000790                __aeabi_l2d
                0x0000000008000790                __floatdidf
 .text          0x00000000080007ec      0x424 /usr/local/Cellar/gcc-arm-none-eabi-49/20150925/bin/../lib/gcc/arm-none-eabi/4.9.3/armv7e-m/fpu/libgcc.a(_arm_muldivdf3.o)
                0x00000000080007ec                __aeabi_dmul
                0x00000000080007ec                __muldf3
                0x0000000008000a40                __aeabi_ddiv
                0x0000000008000a40                __divdf3
 .text          0x0000000008000c10      0x110 /usr/local/Cellar/gcc-arm-none-eabi-49/20150925/bin/../lib/gcc/arm-none-eabi/4.9.3/armv7e-m/fpu/libgcc.a(_arm_cmpdf2.o)
                0x0000000008000c10                __gedf2
                0x0000000008000c10                __gtdf2
                0x0000000008000c18                __ledf2
                0x0000000008000c18                __ltdf2
                0x0000000008000c20                __cmpdf2
                0x0000000008000c20                __eqdf2
                0x0000000008000c20                __nedf2
                0x0000000008000c9c                __aeabi_cdrcmple
                0x0000000008000cac                __aeabi_cdcmple
                0x0000000008000cac                __aeabi_cdcmpeq
                0x0000000008000cbc                __aeabi_dcmpeq
                0x0000000008000cd0                __aeabi_dcmplt
                0x0000000008000ce4                __aeabi_dcmple
                0x0000000008000cf8                __aeabi_dcmpge
                0x0000000008000d0c                __aeabi_dcmpgt
 .text          0x0000000008000d20       0x50 /usr/local/Cellar/gcc-arm-none-eabi-49/20150925/bin/../lib/gcc/arm-none-eabi/4.9.3/armv7e-m/fpu/libgcc.a(_arm_fixdfsi.o)
                0x0000000008000d20                __fixdfsi
                0x0000000008000d20                __aeabi_d2iz
 .text          0x0000000008000d70       0x30 /usr/local/Cellar/gcc-arm-none-eabi-49/20150925/bin/../lib/gcc/arm-none-eabi/4.9.3/armv7e-m/fpu/libgcc.a(_aeabi_uldivmod.o)
                0x0000000008000d70                __aeabi_uldivmod
 .text          0x0000000008000da0       0x60 /usr/local/Cellar/gcc-arm-none-eabi-49/20150925/bin/../lib/gcc/arm-none-eabi/4.9.3/armv7e-m/fpu/libgcc.a(bpabi.o)
                0x0000000008000da0                __gnu_ldivmod_helper
                0x0000000008000dd0                __gnu_uldivmod_helper
 .text          0x0000000008000e00        0x4 /usr/local/Cellar/gcc-arm-none-eabi-49/20150925/bin/../lib/gcc/arm-none-eabi/4.9.3/armv7e-m/fpu/libgcc.a(_dvmd_tls.o)
                0x0000000008000e00                __aeabi_ldiv0
                0x0000000008000e00                __aeabi_idiv0
 .text          0x0000000008000e04      0x29c /usr/local/Cellar/gcc-arm-none-eabi-49/20150925/bin/../lib/gcc/arm-none-eabi/4.9.3/armv7e-m/fpu/libgcc.a(_divdi3.o)
                0x0000000008000e04                __divdi3
 .text          0x00000000080010a0      0x26c /usr/local/Cellar/gcc-arm-none-eabi-49/20150925/bin/../lib/gcc/arm-none-eabi/4.9.3/armv7e-m/fpu/libgcc.a(_udivdi3.o)
                0x00000000080010a0                __udivdi3
 *(.text.*)
 *fill*         0x000000000800130c        0x4 
 .text.startup.main
                0x0000000008001310      0xd70 /var/folders/_f/jzb7lsz153bclt069nvlpp5r0000gn/T//ccGAufxj.ltrans0.ltrans.o
                0x0000000008001310                main
 .text.eval_snd
                0x0000000008002080       0x40 /var/folders/_f/jzb7lsz153bclt069nvlpp5r0000gn/T//ccGAufxj.ltrans1.ltrans.o
                0x0000000008002080                eval_snd
 .text.eval_fst
                0x00000000080020c0       0x40 /var/folders/_f/jzb7lsz153bclt069nvlpp5r0000gn/T//ccGAufxj.ltrans1.ltrans.o
                0x00000000080020c0                eval_fst
 .text._port_irq_epilogue
                0x0000000008002100       0x5c /var/folders/_f/jzb7lsz153bclt069nvlpp5r0000gn/T//ccGAufxj.ltrans1.ltrans.o
                0x0000000008002100                _port_irq_epilogue
 *fill*         0x000000000800215c        0x4 
 .text.SVC_Handler
                0x0000000008002160       0x20 /var/folders/_f/jzb7lsz153bclt069nvlpp5r0000gn/T//ccGAufxj.ltrans1.ltrans.o
                0x0000000008002160                SVC_Handler
 .text.chTMStopMeasurementX
                0x0000000008002180       0x48 /var/folders/_f/jzb7lsz153bclt069nvlpp5r0000gn/T//ccGAufxj.ltrans1.ltrans.o
                0x0000000008002180                chTMStopMeasurementX
 *fill*         0x00000000080021c8        0x8 
 .text.chTMStartMeasurementX
                0x00000000080021d0        0xc /var/folders/_f/jzb7lsz153bclt069nvlpp5r0000gn/T//ccGAufxj.ltrans1.ltrans.o
                0x00000000080021d0                chTMStartMeasurementX
 *fill*         0x00000000080021dc        0x4 
 .text.trace_next.lto_priv.115
                0x00000000080021e0       0x38 /var/folders/_f/jzb7lsz153bclt069nvlpp5r0000gn/T//ccGAufxj.ltrans1.ltrans.o
                0x00000000080021e0                trace_next.lto_priv.115
 *fill*         0x0000000008002218        0x8 
 .text._trace_isr_leave
                0x0000000008002220       0x34 /var/folders/_f/jzb7lsz153bclt069nvlpp5r0000gn/T//ccGAufxj.ltrans1.ltrans.o
                0x0000000008002220                _trace_isr_leave
 *fill*         0x0000000008002254        0xc 
 .text._trace_isr_enter
                0x0000000008002260       0x34 /var/folders/_f/jzb7lsz153bclt069nvlpp5r0000gn/T//ccGAufxj.ltrans1.ltrans.o
                0x0000000008002260                _trace_isr_enter
 *fill*         0x0000000008002294        0xc 
 .text._trace_switch
                0x00000000080022a0       0x38 /var/folders/_f/jzb7lsz153bclt069nvlpp5r0000gn/T//ccGAufxj.ltrans1.ltrans.o
                0x00000000080022a0                _trace_switch
 *fill*         0x00000000080022d8        0x8 
 .text.chDbgCheckClassS
                0x00000000080022e0       0x20 /var/folders/_f/jzb7lsz153bclt069nvlpp5r0000gn/T//ccGAufxj.ltrans1.ltrans.o
                0x00000000080022e0                chDbgCheckClassS
 .text.chSchGoSleepS
                0x0000000008002300       0x50 /var/folders/_f/jzb7lsz153bclt069nvlpp5r0000gn/T//ccGAufxj.ltrans1.ltrans.o
 .text.chDbgCheckClassI
                0x0000000008002350       0x20 /var/folders/_f/jzb7lsz153bclt069nvlpp5r0000gn/T//ccGAufxj.ltrans1.ltrans.o
                0x0000000008002350                chDbgCheckClassI
 .text.chCoreAllocFromTopI
                0x0000000008002370       0x44 /var/folders/_f/jzb7lsz153bclt069nvlpp5r0000gn/T//ccGAufxj.ltrans1.ltrans.o
 *fill*         0x00000000080023b4        0xc 
 .text.chCoreAllocAlignedI.lto_priv.79
                0x00000000080023c0        0x8 /var/folders/_f/jzb7lsz153bclt069nvlpp5r0000gn/T//ccGAufxj.ltrans1.ltrans.o
                0x00000000080023c0                chCoreAllocAlignedI.lto_priv.79
 *fill*         0x00000000080023c8        0x8 
 .text.chSchGoSleepTimeoutS
                0x00000000080023d0      0x18c /var/folders/_f/jzb7lsz153bclt069nvlpp5r0000gn/T//ccGAufxj.ltrans1.ltrans.o
 *fill*         0x000000000800255c        0x4 
 .text.chThdEnqueueTimeoutS
                0x0000000008002560       0x28 /var/folders/_f/jzb7lsz153bclt069nvlpp5r0000gn/T//ccGAufxj.ltrans1.ltrans.o
                0x0000000008002560                chThdEnqueueTimeoutS
 *fill*         0x0000000008002588        0x8 
 .text.chSchReadyAheadI
                0x0000000008002590       0x44 /var/folders/_f/jzb7lsz153bclt069nvlpp5r0000gn/T//ccGAufxj.ltrans1.ltrans.o
                0x0000000008002590                chSchReadyAheadI
 *fill*         0x00000000080025d4        0xc 
 .text.chSchDoReschedule
                0x00000000080025e0       0x4c /var/folders/_f/jzb7lsz153bclt069nvlpp5r0000gn/T//ccGAufxj.ltrans1.ltrans.o
                0x00000000080025e0                chSchDoReschedule
 *fill*         0x000000000800262c        0x4 
 .text.chSchRescheduleS
                0x0000000008002630       0x5c /var/folders/_f/jzb7lsz153bclt069nvlpp5r0000gn/T//ccGAufxj.ltrans1.ltrans.o
                0x0000000008002630                chSchRescheduleS
 *fill*         0x000000000800268c        0x4 
 .text.chSchReadyI
                0x0000000008002690       0x44 /var/folders/_f/jzb7lsz153bclt069nvlpp5r0000gn/T//ccGAufxj.ltrans1.ltrans.o
                0x0000000008002690                chSchReadyI
 *fill*         0x00000000080026d4        0xc 
 .text.chEvtBroadcastFlagsI
                0x00000000080026e0       0x94 /var/folders/_f/jzb7lsz153bclt069nvlpp5r0000gn/T//ccGAufxj.ltrans1.ltrans.o
                0x00000000080026e0                chEvtBroadcastFlagsI
 *fill*         0x0000000008002774        0xc 
 .text.wakeup   0x0000000008002780       0x64 /var/folders/_f/jzb7lsz153bclt069nvlpp5r0000gn/T//ccGAufxj.ltrans1.ltrans.o
 *fill*         0x00000000080027e4        0xc 
 .text._dbg_check_leave_isr
                0x00000000080027f0       0x2c /var/folders/_f/jzb7lsz153bclt069nvlpp5r0000gn/T//ccGAufxj.ltrans1.ltrans.o
                0x00000000080027f0                _dbg_check_leave_isr
 *fill*         0x000000000800281c        0x4 
 .text.chThdExit
                0x0000000008002820       0x58 /var/folders/_f/jzb7lsz153bclt069nvlpp5r0000gn/T//ccGAufxj.ltrans1.ltrans.o
                0x0000000008002820                chThdExit
 *fill*         0x0000000008002878        0x8 
 .text.chPoolFree
                0x0000000008002880       0x5c /var/folders/_f/jzb7lsz153bclt069nvlpp5r0000gn/T//ccGAufxj.ltrans1.ltrans.o
                0x0000000008002880                chPoolFree
 *fill*         0x00000000080028dc        0x4 
 .text.chCoreAllocFromTop
                0x00000000080028e0       0x4c /var/folders/_f/jzb7lsz153bclt069nvlpp5r0000gn/T//ccGAufxj.ltrans1.ltrans.o
                0x00000000080028e0                chCoreAllocFromTop
 *fill*         0x000000000800292c        0x4 
 .text.chRegFindThreadByWorkingArea
                0x0000000008002930      0x40c /var/folders/_f/jzb7lsz153bclt069nvlpp5r0000gn/T//ccGAufxj.ltrans1.ltrans.o
                0x0000000008002930                chRegFindThreadByWorkingArea
 *fill*         0x0000000008002d3c        0x4 
 .text.chThdSleep
                0x0000000008002d40       0x50 /var/folders/_f/jzb7lsz153bclt069nvlpp5r0000gn/T//ccGAufxj.ltrans1.ltrans.o
                0x0000000008002d40                chThdSleep
 .text.eval_dec
                0x0000000008002d90       0x24 /var/folders/_f/jzb7lsz153bclt069nvlpp5r0000gn/T//ccGAufxj.ltrans2.ltrans.o
                0x0000000008002d90                eval_dec
 *fill*         0x0000000008002db4        0xc 
 .text.eval_not
                0x0000000008002dc0       0x28 /var/folders/_f/jzb7lsz153bclt069nvlpp5r0000gn/T//ccGAufxj.ltrans2.ltrans.o
                0x0000000008002dc0                eval_not
 *fill*         0x0000000008002de8        0x8 
 .text.eval_neg
                0x0000000008002df0       0x24 /var/folders/_f/jzb7lsz153bclt069nvlpp5r0000gn/T//ccGAufxj.ltrans2.ltrans.o
                0x0000000008002df0                eval_neg
 *fill*         0x0000000008002e14        0xc 
 .text.eval_abs
                0x0000000008002e20       0x2c /var/folders/_f/jzb7lsz153bclt069nvlpp5r0000gn/T//ccGAufxj.ltrans2.ltrans.o
                0x0000000008002e20                eval_abs
 *fill*         0x0000000008002e4c        0x4 
 .text.eval_goto
                0x0000000008002e50       0x14 /var/folders/_f/jzb7lsz153bclt069nvlpp5r0000gn/T//ccGAufxj.ltrans2.ltrans.o
                0x0000000008002e50                eval_goto
 *fill*         0x0000000008002e64        0xc 
 .text.eval_skip
                0x0000000008002e70        0x8 /var/folders/_f/jzb7lsz153bclt069nvlpp5r0000gn/T//ccGAufxj.ltrans2.ltrans.o
                0x0000000008002e70                eval_skip
 *fill*         0x0000000008002e78        0x8 
 .text.eval_clear
                0x0000000008002e80       0x1c /var/folders/_f/jzb7lsz153bclt069nvlpp5r0000gn/T//ccGAufxj.ltrans2.ltrans.o
                0x0000000008002e80                eval_clear
 *fill*         0x0000000008002e9c        0x4 
 .text.eval_loadb
                0x0000000008002ea0       0x28 /var/folders/_f/jzb7lsz153bclt069nvlpp5r0000gn/T//ccGAufxj.ltrans2.ltrans.o
                0x0000000008002ea0                eval_loadb
 *fill*         0x0000000008002ec8        0x8 
 .text.eval_loadi
                0x0000000008002ed0       0x48 /var/folders/_f/jzb7lsz153bclt069nvlpp5r0000gn/T//ccGAufxj.ltrans2.ltrans.o
                0x0000000008002ed0                eval_loadi
 *fill*         0x0000000008002f18        0x8 
 .text.eval_pack
                0x0000000008002f20       0x80 /var/folders/_f/jzb7lsz153bclt069nvlpp5r0000gn/T//ccGAufxj.ltrans2.ltrans.o
                0x0000000008002f20                eval_pack
 .text.eval_cur
                0x0000000008002fa0       0x80 /var/folders/_f/jzb7lsz153bclt069nvlpp5r0000gn/T//ccGAufxj.ltrans2.ltrans.o
                0x0000000008002fa0                eval_cur
 .text.eval_snoc
                0x0000000008003020       0x80 /var/folders/_f/jzb7lsz153bclt069nvlpp5r0000gn/T//ccGAufxj.ltrans2.ltrans.o
                0x0000000008003020                eval_snoc
 .text.eval_pop
                0x00000000080030a0       0x48 /var/folders/_f/jzb7lsz153bclt069nvlpp5r0000gn/T//ccGAufxj.ltrans2.ltrans.o
                0x00000000080030a0                eval_pop
 *fill*         0x00000000080030e8        0x8 
 .text.eval_eq_bool
                0x00000000080030f0       0x64 /var/folders/_f/jzb7lsz153bclt069nvlpp5r0000gn/T//ccGAufxj.ltrans2.ltrans.o
                0x00000000080030f0                eval_eq_bool
 *fill*         0x0000000008003154        0xc 
 .text.eval_eqf
                0x0000000008003160       0x74 /var/folders/_f/jzb7lsz153bclt069nvlpp5r0000gn/T//ccGAufxj.ltrans2.ltrans.o
                0x0000000008003160                eval_eqf
 *fill*         0x00000000080031d4        0xc 
 .text.eval_eq_signedi
                0x00000000080031e0       0x64 /var/folders/_f/jzb7lsz153bclt069nvlpp5r0000gn/T//ccGAufxj.ltrans2.ltrans.o
                0x00000000080031e0                eval_eq_signedi
 *fill*         0x0000000008003244        0xc 
 .text.eval_eq_unsignedi
                0x0000000008003250       0x64 /var/folders/_f/jzb7lsz153bclt069nvlpp5r0000gn/T//ccGAufxj.ltrans2.ltrans.o
                0x0000000008003250                eval_eq_unsignedi
 *fill*         0x00000000080032b4        0xc 
 .text.eval_lef
                0x00000000080032c0       0x74 /var/folders/_f/jzb7lsz153bclt069nvlpp5r0000gn/T//ccGAufxj.ltrans2.ltrans.o
                0x00000000080032c0                eval_lef
 *fill*         0x0000000008003334        0xc 
 .text.eval_gef
                0x0000000008003340       0x74 /var/folders/_f/jzb7lsz153bclt069nvlpp5r0000gn/T//ccGAufxj.ltrans2.ltrans.o
                0x0000000008003340                eval_gef
 *fill*         0x00000000080033b4        0xc 
 .text.eval_ltf
                0x00000000080033c0       0x74 /var/folders/_f/jzb7lsz153bclt069nvlpp5r0000gn/T//ccGAufxj.ltrans2.ltrans.o
                0x00000000080033c0                eval_ltf
 *fill*         0x0000000008003434        0xc 
 .text.eval_gtf
                0x0000000008003440       0x74 /var/folders/_f/jzb7lsz153bclt069nvlpp5r0000gn/T//ccGAufxj.ltrans2.ltrans.o
                0x0000000008003440                eval_gtf
 *fill*         0x00000000080034b4        0xc 
 .text.eval_le_signedi
                0x00000000080034c0       0x64 /var/folders/_f/jzb7lsz153bclt069nvlpp5r0000gn/T//ccGAufxj.ltrans2.ltrans.o
                0x00000000080034c0                eval_le_signedi
 *fill*         0x0000000008003524        0xc 
 .text.eval_ge_signedi
                0x0000000008003530       0x64 /var/folders/_f/jzb7lsz153bclt069nvlpp5r0000gn/T//ccGAufxj.ltrans2.ltrans.o
                0x0000000008003530                eval_ge_signedi
 *fill*         0x0000000008003594        0xc 
 .text.eval_lt_signedi
                0x00000000080035a0       0x64 /var/folders/_f/jzb7lsz153bclt069nvlpp5r0000gn/T//ccGAufxj.ltrans2.ltrans.o
                0x00000000080035a0                eval_lt_signedi
 *fill*         0x0000000008003604        0xc 
 .text.eval_gt_signedi
                0x0000000008003610       0x64 /var/folders/_f/jzb7lsz153bclt069nvlpp5r0000gn/T//ccGAufxj.ltrans2.ltrans.o
                0x0000000008003610                eval_gt_signedi
 *fill*         0x0000000008003674        0xc 
 .text.eval_le_unsignedi
                0x0000000008003680       0x64 /var/folders/_f/jzb7lsz153bclt069nvlpp5r0000gn/T//ccGAufxj.ltrans2.ltrans.o
                0x0000000008003680                eval_le_unsignedi
 *fill*         0x00000000080036e4        0xc 
 .text.eval_ge_unsignedi
                0x00000000080036f0       0x64 /var/folders/_f/jzb7lsz153bclt069nvlpp5r0000gn/T//ccGAufxj.ltrans2.ltrans.o
                0x00000000080036f0                eval_ge_unsignedi
 *fill*         0x0000000008003754        0xc 
 .text.eval_lt_unsignedi
                0x0000000008003760       0x64 /var/folders/_f/jzb7lsz153bclt069nvlpp5r0000gn/T//ccGAufxj.ltrans2.ltrans.o
                0x0000000008003760                eval_lt_unsignedi
 *fill*         0x00000000080037c4        0xc 
 .text.eval_gt_unsignedi
                0x00000000080037d0       0x64 /var/folders/_f/jzb7lsz153bclt069nvlpp5r0000gn/T//ccGAufxj.ltrans2.ltrans.o
                0x00000000080037d0                eval_gt_unsignedi
 *fill*         0x0000000008003834        0xc 
 .text.eval_minf
                0x0000000008003840       0x68 /var/folders/_f/jzb7lsz153bclt069nvlpp5r0000gn/T//ccGAufxj.ltrans2.ltrans.o
                0x0000000008003840                eval_minf
 *fill*         0x00000000080038a8        0x8 
 .text.eval_mulf
                0x00000000080038b0       0x68 /var/folders/_f/jzb7lsz153bclt069nvlpp5r0000gn/T//ccGAufxj.ltrans2.ltrans.o
                0x00000000080038b0                eval_mulf
 *fill*         0x0000000008003918        0x8 
 .text.eval_addf
                0x0000000008003920       0x68 /var/folders/_f/jzb7lsz153bclt069nvlpp5r0000gn/T//ccGAufxj.ltrans2.ltrans.o
                0x0000000008003920                eval_addf
 *fill*         0x0000000008003988        0x8 
 .text.eval_min_signedi
                0x0000000008003990       0x5c /var/folders/_f/jzb7lsz153bclt069nvlpp5r0000gn/T//ccGAufxj.ltrans2.ltrans.o
                0x0000000008003990                eval_min_signedi
 *fill*         0x00000000080039ec        0x4 
 .text.eval_mul_signedi
                0x00000000080039f0       0x60 /var/folders/_f/jzb7lsz153bclt069nvlpp5r0000gn/T//ccGAufxj.ltrans2.ltrans.o
                0x00000000080039f0                eval_mul_signedi
 .text.eval_add_signedi
                0x0000000008003a50       0x5c /var/folders/_f/jzb7lsz153bclt069nvlpp5r0000gn/T//ccGAufxj.ltrans2.ltrans.o
                0x0000000008003a50                eval_add_signedi
 *fill*         0x0000000008003aac        0x4 
 .text.eval_min_unsignedi
                0x0000000008003ab0       0x5c /var/folders/_f/jzb7lsz153bclt069nvlpp5r0000gn/T//ccGAufxj.ltrans2.ltrans.o
                0x0000000008003ab0                eval_min_unsignedi
 *fill*         0x0000000008003b0c        0x4 
 .text.eval_mul_unsignedi
                0x0000000008003b10       0x60 /var/folders/_f/jzb7lsz153bclt069nvlpp5r0000gn/T//ccGAufxj.ltrans2.ltrans.o
                0x0000000008003b10                eval_mul_unsignedi
 .text.eval_add_unsignedi
                0x0000000008003b70       0x5c /var/folders/_f/jzb7lsz153bclt069nvlpp5r0000gn/T//ccGAufxj.ltrans2.ltrans.o
                0x0000000008003b70                eval_add_unsignedi
 *fill*         0x0000000008003bcc        0x4 
 .text.eval_gotofalse
                0x0000000008003bd0       0x74 /var/folders/_f/jzb7lsz153bclt069nvlpp5r0000gn/T//ccGAufxj.ltrans2.ltrans.o
                0x0000000008003bd0                eval_gotofalse
 *fill*         0x0000000008003c44        0xc 
 .text.eval_return
                0x0000000008003c50       0x38 /var/folders/_f/jzb7lsz153bclt069nvlpp5r0000gn/T//ccGAufxj.ltrans2.ltrans.o
                0x0000000008003c50                eval_return
 *fill*         0x0000000008003c88        0x8 
 .text.eval_cons
                0x0000000008003c90       0x88 /var/folders/_f/jzb7lsz153bclt069nvlpp5r0000gn/T//ccGAufxj.ltrans2.ltrans.o
                0x0000000008003c90                eval_cons
 *fill*         0x0000000008003d18        0x8 
 .text.eval_move
                0x0000000008003d20       0x5c /var/folders/_f/jzb7lsz153bclt069nvlpp5r0000gn/T//ccGAufxj.ltrans2.ltrans.o
                0x0000000008003d20                eval_move
 *fill*         0x0000000008003d7c        0x4 
 .text.eval_call
                0x0000000008003d80       0x48 /var/folders/_f/jzb7lsz153bclt069nvlpp5r0000gn/T//ccGAufxj.ltrans2.ltrans.o
                0x0000000008003d80                eval_call
 *fill*         0x0000000008003dc8        0x8 
 .text.eval_swap
                0x0000000008003dd0       0x80 /var/folders/_f/jzb7lsz153bclt069nvlpp5r0000gn/T//ccGAufxj.ltrans2.ltrans.o
                0x0000000008003dd0                eval_swap
 .text.eval_push
                0x0000000008003e50       0x48 /var/folders/_f/jzb7lsz153bclt069nvlpp5r0000gn/T//ccGAufxj.ltrans2.ltrans.o
                0x0000000008003e50                eval_push
 *fill*         0x0000000008003e98        0x8 
 .text.eval_switch
                0x0000000008003ea0       0xe0 /var/folders/_f/jzb7lsz153bclt069nvlpp5r0000gn/T//ccGAufxj.ltrans2.ltrans.o
                0x0000000008003ea0                eval_switch
 .text.eval_app
                0x0000000008003f80      0x11c /var/folders/_f/jzb7lsz153bclt069nvlpp5r0000gn/T//ccGAufxj.ltrans2.ltrans.o
                0x0000000008003f80                eval_app
 *fill*         0x000000000800409c        0x4 
 .text.eval_rest
                0x00000000080040a0       0x5c /var/folders/_f/jzb7lsz153bclt069nvlpp5r0000gn/T//ccGAufxj.ltrans2.ltrans.o
                0x00000000080040a0                eval_rest
 *fill*         0x00000000080040fc        0x4 
 .text.eval_acc
                0x0000000008004100       0x90 /var/folders/_f/jzb7lsz153bclt069nvlpp5r0000gn/T//ccGAufxj.ltrans2.ltrans.o
                0x0000000008004100                eval_acc
 .text.eval_stop
                0x0000000008004190       0x38 /var/folders/_f/jzb7lsz153bclt069nvlpp5r0000gn/T//ccGAufxj.ltrans2.ltrans.o
                0x0000000008004190                eval_stop
 *fill*         0x00000000080041c8        0x8 
 .text.eval_gotoifalse
                0x00000000080041d0       0x30 /var/folders/_f/jzb7lsz153bclt069nvlpp5r0000gn/T//ccGAufxj.ltrans3.ltrans.o
                0x00000000080041d0                eval_gotoifalse
 .text.eval_switchi
                0x0000000008004200       0xa0 /var/folders/_f/jzb7lsz153bclt069nvlpp5r0000gn/T//ccGAufxj.ltrans3.ltrans.o
                0x0000000008004200                eval_switchi
 .text.eval_comb
                0x00000000080042a0       0x70 /var/folders/_f/jzb7lsz153bclt069nvlpp5r0000gn/T//ccGAufxj.ltrans3.ltrans.o
                0x00000000080042a0                eval_comb
 .text.eval_callrts
                0x0000000008004310      0xa38 /var/folders/_f/jzb7lsz153bclt069nvlpp5r0000gn/T//ccGAufxj.ltrans3.ltrans.o
                0x0000000008004310                eval_callrts
 *fill*         0x0000000008004d48        0x8 
 .text._idle_thread.lto_priv.92
                0x0000000008004d50        0x4 /var/folders/_f/jzb7lsz153bclt069nvlpp5r0000gn/T//ccGAufxj.ltrans4.ltrans.o
                0x0000000008004d50                _idle_thread.lto_priv.92
 *fill*         0x0000000008004d54        0xc 
 .text.chSysPolledDelayX
                0x0000000008004d60       0x14 /var/folders/_f/jzb7lsz153bclt069nvlpp5r0000gn/T//ccGAufxj.ltrans4.ltrans.o
                0x0000000008004d60                chSysPolledDelayX
 *fill*         0x0000000008004d74        0xc 
 .text.chSysHalt
                0x0000000008004d80       0x34 /var/folders/_f/jzb7lsz153bclt069nvlpp5r0000gn/T//ccGAufxj.ltrans4.ltrans.o
                0x0000000008004d80                chSysHalt
 *fill*         0x0000000008004db4        0xc 
 .text._dbg_check_enter_isr
                0x0000000008004dc0       0x2c /var/folders/_f/jzb7lsz153bclt069nvlpp5r0000gn/T//ccGAufxj.ltrans4.ltrans.o
                0x0000000008004dc0                _dbg_check_enter_isr
 *fill*         0x0000000008004dec        0x4 
 .text._dbg_check_unlock_from_isr
                0x0000000008004df0       0x24 /var/folders/_f/jzb7lsz153bclt069nvlpp5r0000gn/T//ccGAufxj.ltrans4.ltrans.o
                0x0000000008004df0                _dbg_check_unlock_from_isr
 *fill*         0x0000000008004e14        0xc 
 .text._dbg_check_lock_from_isr
                0x0000000008004e20       0x24 /var/folders/_f/jzb7lsz153bclt069nvlpp5r0000gn/T//ccGAufxj.ltrans4.ltrans.o
                0x0000000008004e20                _dbg_check_lock_from_isr
 *fill*         0x0000000008004e44        0xc 
 .text._dbg_check_unlock
                0x0000000008004e50       0x20 /var/folders/_f/jzb7lsz153bclt069nvlpp5r0000gn/T//ccGAufxj.ltrans4.ltrans.o
                0x0000000008004e50                _dbg_check_unlock
 .text._dbg_check_lock
                0x0000000008004e70       0x20 /var/folders/_f/jzb7lsz153bclt069nvlpp5r0000gn/T//ccGAufxj.ltrans4.ltrans.o
                0x0000000008004e70                _dbg_check_lock
 .text.otg_txfifo_handler
                0x0000000008004e90       0xa4 /var/folders/_f/jzb7lsz153bclt069nvlpp5r0000gn/T//ccGAufxj.ltrans4.ltrans.o
 *fill*         0x0000000008004f34        0xc 
 .text.__early_init
                0x0000000008004f40      0x2d8 /var/folders/_f/jzb7lsz153bclt069nvlpp5r0000gn/T//ccGAufxj.ltrans4.ltrans.o
                0x0000000008004f40                __early_init
 *fill*         0x0000000008005218        0x8 
 .text.VectorB0
                0x0000000008005220      0x108 /var/folders/_f/jzb7lsz153bclt069nvlpp5r0000gn/T//ccGAufxj.ltrans4.ltrans.o
                0x0000000008005220                VectorB0
 *fill*         0x0000000008005328        0x8 
 .text.usb_lld_start_in
                0x0000000008005330       0xac /var/folders/_f/jzb7lsz153bclt069nvlpp5r0000gn/T//ccGAufxj.ltrans4.ltrans.o
                0x0000000008005330                usb_lld_start_in
 *fill*         0x00000000080053dc        0x4 
 .text.otg_epin_handler
                0x00000000080053e0       0x9c /var/folders/_f/jzb7lsz153bclt069nvlpp5r0000gn/T//ccGAufxj.ltrans4.ltrans.o
 *fill*         0x000000000800547c        0x4 
 .text.usb_lld_start_out
                0x0000000008005480       0x84 /var/folders/_f/jzb7lsz153bclt069nvlpp5r0000gn/T//ccGAufxj.ltrans4.ltrans.o
                0x0000000008005480                usb_lld_start_out
 *fill*         0x0000000008005504        0xc 
 .text.otg_epout_handler
                0x0000000008005510       0xa0 /var/folders/_f/jzb7lsz153bclt069nvlpp5r0000gn/T//ccGAufxj.ltrans4.ltrans.o
 .text.usb_lld_serve_interrupt
                0x00000000080055b0      0x4a4 /var/folders/_f/jzb7lsz153bclt069nvlpp5r0000gn/T//ccGAufxj.ltrans4.ltrans.o
 *fill*         0x0000000008005a54        0xc 
 .text.Vector174
                0x0000000008005a60       0x30 /var/folders/_f/jzb7lsz153bclt069nvlpp5r0000gn/T//ccGAufxj.ltrans4.ltrans.o
                0x0000000008005a60                Vector174
 .text.Vector14C
                0x0000000008005a90       0x30 /var/folders/_f/jzb7lsz153bclt069nvlpp5r0000gn/T//ccGAufxj.ltrans4.ltrans.o
                0x0000000008005a90                Vector14C
 .text.Vector158
                0x0000000008005ac0       0x44 /var/folders/_f/jzb7lsz153bclt069nvlpp5r0000gn/T//ccGAufxj.ltrans4.ltrans.o
                0x0000000008005ac0                Vector158
 *fill*         0x0000000008005b04        0xc 
 .text.Vector154
                0x0000000008005b10       0x44 /var/folders/_f/jzb7lsz153bclt069nvlpp5r0000gn/T//ccGAufxj.ltrans4.ltrans.o
                0x0000000008005b10                Vector154
 *fill*         0x0000000008005b54        0xc 
 .text.Vector150
                0x0000000008005b60       0x44 /var/folders/_f/jzb7lsz153bclt069nvlpp5r0000gn/T//ccGAufxj.ltrans4.ltrans.o
                0x0000000008005b60                Vector150
 *fill*         0x0000000008005ba4        0xc 
 .text.Vector130
                0x0000000008005bb0       0x40 /var/folders/_f/jzb7lsz153bclt069nvlpp5r0000gn/T//ccGAufxj.ltrans4.ltrans.o
                0x0000000008005bb0                Vector130
 .text.Vector12C
                0x0000000008005bf0       0x44 /var/folders/_f/jzb7lsz153bclt069nvlpp5r0000gn/T//ccGAufxj.ltrans4.ltrans.o
                0x0000000008005bf0                Vector12C
 *fill*         0x0000000008005c34        0xc 
 .text.Vector128
                0x0000000008005c40       0x44 /var/folders/_f/jzb7lsz153bclt069nvlpp5r0000gn/T//ccGAufxj.ltrans4.ltrans.o
                0x0000000008005c40                Vector128
 *fill*         0x0000000008005c84        0xc 
 .text.get_descriptor.lto_priv.81
                0x0000000008005c90       0x30 /var/folders/_f/jzb7lsz153bclt069nvlpp5r0000gn/T//ccGAufxj.ltrans5.ltrans.o
                0x0000000008005c90                get_descriptor.lto_priv.81
 .text.ll_dac_read.lto_priv.73
                0x0000000008005cc0       0x28 /var/folders/_f/jzb7lsz153bclt069nvlpp5r0000gn/T//ccGAufxj.ltrans5.ltrans.o
                0x0000000008005cc0                ll_dac_read.lto_priv.73
 *fill*         0x0000000008005ce8        0x8 
 .text.ll_dac_data_writeable.lto_priv.76
                0x0000000008005cf0        0x4 /var/folders/_f/jzb7lsz153bclt069nvlpp5r0000gn/T//ccGAufxj.ltrans5.ltrans.o
                0x0000000008005cf0                ll_dac_data_writeable.lto_priv.76
 *fill*         0x0000000008005cf4        0xc 
 .text.ll_dac_data_available.lto_priv.75
                0x0000000008005d00        0x4 /var/folders/_f/jzb7lsz153bclt069nvlpp5r0000gn/T//ccGAufxj.ltrans5.ltrans.o
                0x0000000008005d00                ll_dac_data_available.lto_priv.75
 *fill*         0x0000000008005d04        0xc 
 .text.ll_dac_control.lto_priv.72
                0x0000000008005d10        0x4 /var/folders/_f/jzb7lsz153bclt069nvlpp5r0000gn/T//ccGAufxj.ltrans5.ltrans.o
                0x0000000008005d10                ll_dac_control.lto_priv.72
 *fill*         0x0000000008005d14        0xc 
 .text.print_it
                0x0000000008005d20       0x3c /var/folders/_f/jzb7lsz153bclt069nvlpp5r0000gn/T//ccGAufxj.ltrans5.ltrans.o
                0x0000000008005d20                print_it
 *fill*         0x0000000008005d5c        0x4 
 .text.send_message.lto_priv.71
                0x0000000008005d60       0xc4 /var/folders/_f/jzb7lsz153bclt069nvlpp5r0000gn/T//ccGAufxj.ltrans5.ltrans.o
                0x0000000008005d60                send_message.lto_priv.71
 *fill*         0x0000000008005e24        0xc 
 .text.dbg_print
                0x0000000008005e30       0x24 /var/folders/_f/jzb7lsz153bclt069nvlpp5r0000gn/T//ccGAufxj.ltrans5.ltrans.o
 *fill*         0x0000000008005e54        0xc 
 .text.sof_handler.lto_priv.82
                0x0000000008005e60       0xa8 /var/folders/_f/jzb7lsz153bclt069nvlpp5r0000gn/T//ccGAufxj.ltrans5.ltrans.o
                0x0000000008005e60                sof_handler.lto_priv.82
 *fill*         0x0000000008005f08        0x8 
 .text.usb_event.lto_priv.80
                0x0000000008005f10      0x104 /var/folders/_f/jzb7lsz153bclt069nvlpp5r0000gn/T//ccGAufxj.ltrans5.ltrans.o
                0x0000000008005f10                usb_event.lto_priv.80
 *fill*         0x0000000008006014        0xc 
 .text.ll_dac_write.lto_priv.74
                0x0000000008006020       0x30 /var/folders/_f/jzb7lsz153bclt069nvlpp5r0000gn/T//ccGAufxj.ltrans5.ltrans.o
                0x0000000008006020                ll_dac_write.lto_priv.74
 .text.Vector108
                0x0000000008006050       0xe4 /var/folders/_f/jzb7lsz153bclt069nvlpp5r0000gn/T//ccGAufxj.ltrans5.ltrans.o
                0x0000000008006050                Vector108
 *fill*         0x0000000008006134        0xc 
 .text.pq_extractMin
                0x0000000008006140      0x180 /var/folders/_f/jzb7lsz153bclt069nvlpp5r0000gn/T//ccGAufxj.ltrans5.ltrans.o
                0x0000000008006140                pq_extractMin
 .text.sys_time_set_wake_up
                0x00000000080062c0       0x90 /var/folders/_f/jzb7lsz153bclt069nvlpp5r0000gn/T//ccGAufxj.ltrans5.ltrans.o
                0x00000000080062c0                sys_time_set_wake_up
 .text.sys_time_get_current_ticks
                0x0000000008006350       0x50 /var/folders/_f/jzb7lsz153bclt069nvlpp5r0000gn/T//ccGAufxj.ltrans5.ltrans.o
                0x0000000008006350                sys_time_get_current_ticks
 .text.chibios_container_thread.lto_priv.63
                0x00000000080063a0      0x43c /var/folders/_f/jzb7lsz153bclt069nvlpp5r0000gn/T//ccGAufxj.ltrans5.ltrans.o
                0x00000000080063a0                chibios_container_thread.lto_priv.63
 *fill*         0x00000000080067dc        0x4 
 .text.Vector124
                0x00000000080067e0       0x44 /var/folders/_f/jzb7lsz153bclt069nvlpp5r0000gn/T//ccGAufxj.ltrans6.ltrans.o
                0x00000000080067e0                Vector124
 *fill*         0x0000000008006824        0xc 
 .text.Vector120
                0x0000000008006830       0x40 /var/folders/_f/jzb7lsz153bclt069nvlpp5r0000gn/T//ccGAufxj.ltrans6.ltrans.o
                0x0000000008006830                Vector120
 .text.VectorFC
                0x0000000008006870       0x44 /var/folders/_f/jzb7lsz153bclt069nvlpp5r0000gn/T//ccGAufxj.ltrans6.ltrans.o
                0x0000000008006870                VectorFC
 *fill*         0x00000000080068b4        0xc 
 .text.Vector84
                0x00000000080068c0       0x44 /var/folders/_f/jzb7lsz153bclt069nvlpp5r0000gn/T//ccGAufxj.ltrans6.ltrans.o
                0x00000000080068c0                Vector84
 *fill*         0x0000000008006904        0xc 
 .text.Vector80
                0x0000000008006910       0x44 /var/folders/_f/jzb7lsz153bclt069nvlpp5r0000gn/T//ccGAufxj.ltrans6.ltrans.o
                0x0000000008006910                Vector80
 *fill*         0x0000000008006954        0xc 
 .text.Vector7C
                0x0000000008006960       0x40 /var/folders/_f/jzb7lsz153bclt069nvlpp5r0000gn/T//ccGAufxj.ltrans6.ltrans.o
                0x0000000008006960                Vector7C
 .text.Vector78
                0x00000000080069a0       0x44 /var/folders/_f/jzb7lsz153bclt069nvlpp5r0000gn/T//ccGAufxj.ltrans6.ltrans.o
                0x00000000080069a0                Vector78
 *fill*         0x00000000080069e4        0xc 
 .text.Vector74
                0x00000000080069f0       0x44 /var/folders/_f/jzb7lsz153bclt069nvlpp5r0000gn/T//ccGAufxj.ltrans6.ltrans.o
                0x00000000080069f0                Vector74
 *fill*         0x0000000008006a34        0xc 
 .text.Vector70
                0x0000000008006a40       0x44 /var/folders/_f/jzb7lsz153bclt069nvlpp5r0000gn/T//ccGAufxj.ltrans6.ltrans.o
                0x0000000008006a40                Vector70
 *fill*         0x0000000008006a84        0xc 
 .text.Vector6C
                0x0000000008006a90       0x40 /var/folders/_f/jzb7lsz153bclt069nvlpp5r0000gn/T//ccGAufxj.ltrans6.ltrans.o
                0x0000000008006a90                Vector6C
 .text.VectorE0
                0x0000000008006ad0       0x8c /var/folders/_f/jzb7lsz153bclt069nvlpp5r0000gn/T//ccGAufxj.ltrans6.ltrans.o
                0x0000000008006ad0                VectorE0
 *fill*         0x0000000008006b5c        0x4 
 .text.Vector9C
                0x0000000008006b60       0x80 /var/folders/_f/jzb7lsz153bclt069nvlpp5r0000gn/T//ccGAufxj.ltrans6.ltrans.o
                0x0000000008006b60                Vector9C
 .text.Vector68
                0x0000000008006be0       0x44 /var/folders/_f/jzb7lsz153bclt069nvlpp5r0000gn/T//ccGAufxj.ltrans6.ltrans.o
                0x0000000008006be0                Vector68
 *fill*         0x0000000008006c24        0xc 
 .text.Vector64
                0x0000000008006c30       0x44 /var/folders/_f/jzb7lsz153bclt069nvlpp5r0000gn/T//ccGAufxj.ltrans6.ltrans.o
                0x0000000008006c30                Vector64
 *fill*         0x0000000008006c74        0xc 
 .text.Vector60
                0x0000000008006c80       0x44 /var/folders/_f/jzb7lsz153bclt069nvlpp5r0000gn/T//ccGAufxj.ltrans6.ltrans.o
                0x0000000008006c80                Vector60
 *fill*         0x0000000008006cc4        0xc 
 .text.Vector5C
                0x0000000008006cd0       0x44 /var/folders/_f/jzb7lsz153bclt069nvlpp5r0000gn/T//ccGAufxj.ltrans6.ltrans.o
                0x0000000008006cd0                Vector5C
 *fill*         0x0000000008006d14        0xc 
 .text.Vector58
                0x0000000008006d20       0x44 /var/folders/_f/jzb7lsz153bclt069nvlpp5r0000gn/T//ccGAufxj.ltrans6.ltrans.o
                0x0000000008006d20                Vector58
 *fill*         0x0000000008006d64        0xc 
 .text.usbStartTransmitI
                0x0000000008006d70       0x50 /var/folders/_f/jzb7lsz153bclt069nvlpp5r0000gn/T//ccGAufxj.ltrans6.ltrans.o
                0x0000000008006d70                usbStartTransmitI
 .text._usb_ep0out
                0x0000000008006dc0       0x9c /var/folders/_f/jzb7lsz153bclt069nvlpp5r0000gn/T//ccGAufxj.ltrans6.ltrans.o
                0x0000000008006dc0                _usb_ep0out
 *fill*         0x0000000008006e5c        0x4 
 .text.usbStartReceiveI
                0x0000000008006e60       0x50 /var/folders/_f/jzb7lsz153bclt069nvlpp5r0000gn/T//ccGAufxj.ltrans6.ltrans.o
                0x0000000008006e60                usbStartReceiveI
 .text._usb_ep0in
                0x0000000008006eb0       0xd8 /var/folders/_f/jzb7lsz153bclt069nvlpp5r0000gn/T//ccGAufxj.ltrans6.ltrans.o
                0x0000000008006eb0                _usb_ep0in
 *fill*         0x0000000008006f88        0x8 
 .text._usb_ep0setup
                0x0000000008006f90      0x41c /var/folders/_f/jzb7lsz153bclt069nvlpp5r0000gn/T//ccGAufxj.ltrans6.ltrans.o
                0x0000000008006f90                _usb_ep0setup
 *fill*         0x00000000080073ac        0x4 
 .text.sduInterruptTransmitted
                0x00000000080073b0        0x4 /var/folders/_f/jzb7lsz153bclt069nvlpp5r0000gn/T//ccGAufxj.ltrans7.ltrans.o
                0x00000000080073b0                sduInterruptTransmitted
 *fill*         0x00000000080073b4        0xc 
 .text.sduRequestsHook
                0x00000000080073c0       0x40 /var/folders/_f/jzb7lsz153bclt069nvlpp5r0000gn/T//ccGAufxj.ltrans7.ltrans.o
                0x00000000080073c0                sduRequestsHook
 .text._ctl.lto_priv.91
                0x0000000008007400       0x1c /var/folders/_f/jzb7lsz153bclt069nvlpp5r0000gn/T//ccGAufxj.ltrans7.ltrans.o
                0x0000000008007400                _ctl.lto_priv.91
 *fill*         0x000000000800741c        0x4 
 .text.obqPostFullBufferS
                0x0000000008007420       0x50 /var/folders/_f/jzb7lsz153bclt069nvlpp5r0000gn/T//ccGAufxj.ltrans7.ltrans.o
 .text.ibqReleaseEmptyBufferS
                0x0000000008007470       0x40 /var/folders/_f/jzb7lsz153bclt069nvlpp5r0000gn/T//ccGAufxj.ltrans7.ltrans.o
 .text.obqGetEmptyBufferTimeoutS
                0x00000000080074b0       0x48 /var/folders/_f/jzb7lsz153bclt069nvlpp5r0000gn/T//ccGAufxj.ltrans7.ltrans.o
 *fill*         0x00000000080074f8        0x8 
 .text.ibqGetFullBufferTimeoutS
                0x0000000008007500       0x48 /var/folders/_f/jzb7lsz153bclt069nvlpp5r0000gn/T//ccGAufxj.ltrans7.ltrans.o
 *fill*         0x0000000008007548        0x8 
 .text.usbInitEndpointI
                0x0000000008007550      0x1ac /var/folders/_f/jzb7lsz153bclt069nvlpp5r0000gn/T//ccGAufxj.ltrans7.ltrans.o
                0x0000000008007550                usbInitEndpointI
 *fill*         0x00000000080076fc        0x4 
 .text.sdu_start_receive.lto_priv.102
                0x0000000008007700       0x50 /var/folders/_f/jzb7lsz153bclt069nvlpp5r0000gn/T//ccGAufxj.ltrans7.ltrans.o
                0x0000000008007700                sdu_start_receive.lto_priv.102
 .text.sduDataReceived
                0x0000000008007750       0x8c /var/folders/_f/jzb7lsz153bclt069nvlpp5r0000gn/T//ccGAufxj.ltrans7.ltrans.o
                0x0000000008007750                sduDataReceived
 *fill*         0x00000000080077dc        0x4 
 .text.ibnotify.lto_priv.77
                0x00000000080077e0        0x8 /var/folders/_f/jzb7lsz153bclt069nvlpp5r0000gn/T//ccGAufxj.ltrans7.ltrans.o
                0x00000000080077e0                ibnotify.lto_priv.77
 *fill*         0x00000000080077e8        0x8 
 .text.obqGetFullBufferI
                0x00000000080077f0       0x28 /var/folders/_f/jzb7lsz153bclt069nvlpp5r0000gn/T//ccGAufxj.ltrans7.ltrans.o
                0x00000000080077f0                obqGetFullBufferI
 *fill*         0x0000000008007818        0x8 
 .text.sduDataTransmitted
                0x0000000008007820       0xbc /var/folders/_f/jzb7lsz153bclt069nvlpp5r0000gn/T//ccGAufxj.ltrans7.ltrans.o
                0x0000000008007820                sduDataTransmitted
 *fill*         0x00000000080078dc        0x4 
 .text.obnotify.lto_priv.78
                0x00000000080078e0       0x50 /var/folders/_f/jzb7lsz153bclt069nvlpp5r0000gn/T//ccGAufxj.ltrans7.ltrans.o
                0x00000000080078e0                obnotify.lto_priv.78
 .text.stSetAlarm
                0x0000000008007930       0x1c /var/folders/_f/jzb7lsz153bclt069nvlpp5r0000gn/T//ccGAufxj.ltrans7.ltrans.o
                0x0000000008007930                stSetAlarm
 *fill*         0x000000000800794c        0x4 
 .text.__init_ram_areas
                0x0000000008007950       0x4c /var/folders/_f/jzb7lsz153bclt069nvlpp5r0000gn/T//ccGAufxj.ltrans7.ltrans.o
                0x0000000008007950                __init_ram_areas
 *fill*         0x000000000800799c        0x4 
 .text.__default_exit
                0x00000000080079a0        0x4 /var/folders/_f/jzb7lsz153bclt069nvlpp5r0000gn/T//ccGAufxj.ltrans7.ltrans.o
                0x00000000080079a0                __default_exit
 *fill*         0x00000000080079a4        0xc 
 .text.__late_init
                0x00000000080079b0        0x4 /var/folders/_f/jzb7lsz153bclt069nvlpp5r0000gn/T//ccGAufxj.ltrans7.ltrans.o
                0x00000000080079b0                __late_init
 *fill*         0x00000000080079b4        0xc 
 .text.__core_init
                0x00000000080079c0        0x4 /var/folders/_f/jzb7lsz153bclt069nvlpp5r0000gn/T//ccGAufxj.ltrans7.ltrans.o
                0x00000000080079c0                __core_init
 *fill*         0x00000000080079c4        0xc 
 .text.obqWriteTimeout
                0x00000000080079d0      0x12c /var/folders/_f/jzb7lsz153bclt069nvlpp5r0000gn/T//ccGAufxj.ltrans7.ltrans.o
 *fill*         0x0000000008007afc        0x4 
 .text._writet.lto_priv.89
                0x0000000008007b00        0x8 /var/folders/_f/jzb7lsz153bclt069nvlpp5r0000gn/T//ccGAufxj.ltrans7.ltrans.o
                0x0000000008007b00                _writet.lto_priv.89
 *fill*         0x0000000008007b08        0x8 
 .text._write.lto_priv.83
                0x0000000008007b10        0xc /var/folders/_f/jzb7lsz153bclt069nvlpp5r0000gn/T//ccGAufxj.ltrans7.ltrans.o
                0x0000000008007b10                _write.lto_priv.83
 *fill*         0x0000000008007b1c        0x4 
 .text.obqPutTimeout
                0x0000000008007b20       0x90 /var/folders/_f/jzb7lsz153bclt069nvlpp5r0000gn/T//ccGAufxj.ltrans7.ltrans.o
 .text._putt.lto_priv.87
                0x0000000008007bb0        0x8 /var/folders/_f/jzb7lsz153bclt069nvlpp5r0000gn/T//ccGAufxj.ltrans7.ltrans.o
                0x0000000008007bb0                _putt.lto_priv.87
 *fill*         0x0000000008007bb8        0x8 
 .text._put.lto_priv.85
                0x0000000008007bc0        0xc /var/folders/_f/jzb7lsz153bclt069nvlpp5r0000gn/T//ccGAufxj.ltrans7.ltrans.o
                0x0000000008007bc0                _put.lto_priv.85
 *fill*         0x0000000008007bcc        0x4 
 .text.ibqReadTimeout
                0x0000000008007bd0      0x11c /var/folders/_f/jzb7lsz153bclt069nvlpp5r0000gn/T//ccGAufxj.ltrans7.ltrans.o
 *fill*         0x0000000008007cec        0x4 
 .text._readt.lto_priv.90
                0x0000000008007cf0        0x8 /var/folders/_f/jzb7lsz153bclt069nvlpp5r0000gn/T//ccGAufxj.ltrans7.ltrans.o
                0x0000000008007cf0                _readt.lto_priv.90
 *fill*         0x0000000008007cf8        0x8 
 .text._read.lto_priv.84
                0x0000000008007d00        0xc /var/folders/_f/jzb7lsz153bclt069nvlpp5r0000gn/T//ccGAufxj.ltrans7.ltrans.o
                0x0000000008007d00                _read.lto_priv.84
 *fill*         0x0000000008007d0c        0x4 
 .text.ibqGetTimeout
                0x0000000008007d10       0x8c /var/folders/_f/jzb7lsz153bclt069nvlpp5r0000gn/T//ccGAufxj.ltrans7.ltrans.o
 *fill*         0x0000000008007d9c        0x4 
 .text._gett.lto_priv.88
                0x0000000008007da0        0x8 /var/folders/_f/jzb7lsz153bclt069nvlpp5r0000gn/T//ccGAufxj.ltrans7.ltrans.o
                0x0000000008007da0                _gett.lto_priv.88
 *fill*         0x0000000008007da8        0x8 
 .text._get.lto_priv.86
                0x0000000008007db0        0xc /var/folders/_f/jzb7lsz153bclt069nvlpp5r0000gn/T//ccGAufxj.ltrans7.ltrans.o
                0x0000000008007db0                _get.lto_priv.86
 *fill*         0x0000000008007dbc        0x4 
 .text.long_to_string_with_divisor.constprop.37
                0x0000000008007dc0       0x44 /var/folders/_f/jzb7lsz153bclt069nvlpp5r0000gn/T//ccGAufxj.ltrans8.ltrans.o
 *fill*         0x0000000008007e04        0xc 
 .text.chThdDequeueAllI.constprop.57
                0x0000000008007e10       0x48 /var/folders/_f/jzb7lsz153bclt069nvlpp5r0000gn/T//ccGAufxj.ltrans8.ltrans.o
                0x0000000008007e10                chThdDequeueAllI.constprop.57
 *fill*         0x0000000008007e58        0x8 
 .text.chThdDequeueNextI.constprop.55
                0x0000000008007e60       0x30 /var/folders/_f/jzb7lsz153bclt069nvlpp5r0000gn/T//ccGAufxj.ltrans8.ltrans.o
                0x0000000008007e60                chThdDequeueNextI.constprop.55
 .text.dac_lld_put_channel.constprop.51
                0x0000000008007e90       0x44 /var/folders/_f/jzb7lsz153bclt069nvlpp5r0000gn/T//ccGAufxj.ltrans8.ltrans.o
                0x0000000008007e90                dac_lld_put_channel.constprop.51
 *fill*         0x0000000008007ed4        0xc 
 .text.chprintf.constprop.35
                0x0000000008007ee0      0x3b0 /var/folders/_f/jzb7lsz153bclt069nvlpp5r0000gn/T//ccGAufxj.ltrans8.ltrans.o
                0x0000000008007ee0                chprintf.constprop.35
 .text.chSchWakeupS.constprop.34
                0x0000000008008290       0x78 /var/folders/_f/jzb7lsz153bclt069nvlpp5r0000gn/T//ccGAufxj.ltrans8.ltrans.o
                0x0000000008008290                chSchWakeupS.constprop.34
 *fill*         0x0000000008008308        0x8 
 .text.vmc_heap_alloc_n.constprop.21
                0x0000000008008310       0x54 /var/folders/_f/jzb7lsz153bclt069nvlpp5r0000gn/T//ccGAufxj.ltrans8.ltrans.o
                0x0000000008008310                vmc_heap_alloc_n.constprop.21
 *fill*         0x0000000008008364        0xc 
 .text.message_pass.constprop.17
                0x0000000008008370      0x148 /var/folders/_f/jzb7lsz153bclt069nvlpp5r0000gn/T//ccGAufxj.ltrans8.ltrans.o
                0x0000000008008370                message_pass.constprop.17
 *fill*         0x00000000080084b8        0x8 
 .text._sbrk_r  0x00000000080084c0       0x78 /var/folders/_f/jzb7lsz153bclt069nvlpp5r0000gn/T//ccGAufxj.ltrans8.ltrans.o
                0x00000000080084c0                _sbrk_r
 *fill*         0x0000000008008538        0x8 
 .text.heap_mark
                0x0000000008008540      0x128 /var/folders/_f/jzb7lsz153bclt069nvlpp5r0000gn/T//ccGAufxj.ltrans9.ltrans.o
 *fill*         0x0000000008008668        0x8 
 .text.pq_insert
                0x0000000008008670       0xe4 /var/folders/_f/jzb7lsz153bclt069nvlpp5r0000gn/T//ccGAufxj.ltrans9.ltrans.o
                0x0000000008008670                pq_insert
 *fill*         0x0000000008008754        0xc 
 .text.heap_mark_phase.lto_priv.61
                0x0000000008008760       0xd0 /var/folders/_f/jzb7lsz153bclt069nvlpp5r0000gn/T//ccGAufxj.ltrans9.ltrans.o
                0x0000000008008760                heap_mark_phase.lto_priv.61
 .text.stack_pop
                0x0000000008008830       0x28 /var/folders/_f/jzb7lsz153bclt069nvlpp5r0000gn/T//ccGAufxj.ltrans9.ltrans.o
                0x0000000008008830                stack_pop
 *fill*         0x0000000008008858        0x8 
 .text.stack_push
                0x0000000008008860       0x38 /var/folders/_f/jzb7lsz153bclt069nvlpp5r0000gn/T//ccGAufxj.ltrans9.ltrans.o
                0x0000000008008860                stack_push
 *fill*         0x0000000008008898        0x8 
 .text.setAlarm.lto_priv.101
                0x00000000080088a0       0x2c /var/folders/_f/jzb7lsz153bclt069nvlpp5r0000gn/T//ccGAufxj.ltrans9.ltrans.o
                0x00000000080088a0                setAlarm.lto_priv.101
 *fill*         0x00000000080088cc        0x4 
 .text.dispatch
                0x00000000080088d0       0x28 /var/folders/_f/jzb7lsz153bclt069nvlpp5r0000gn/T//ccGAufxj.ltrans9.ltrans.o
                0x00000000080088d0                dispatch
 *fill*         0x00000000080088f8        0x8 
 .text.spawn    0x0000000008008900       0xb8 /var/folders/_f/jzb7lsz153bclt069nvlpp5r0000gn/T//ccGAufxj.ltrans9.ltrans.o
                0x0000000008008900                spawn
 *fill*         0x00000000080089b8        0x8 
 .text.heap_allocate
                0x00000000080089c0       0x68 /var/folders/_f/jzb7lsz153bclt069nvlpp5r0000gn/T//ccGAufxj.ltrans9.ltrans.o
                0x00000000080089c0                heap_allocate
 *fill*         0x0000000008008a28        0x8 
 .text.vmc_heap_alloc_withGC
                0x0000000008008a30       0x20 /var/folders/_f/jzb7lsz153bclt069nvlpp5r0000gn/T//ccGAufxj.ltrans9.ltrans.o
                0x0000000008008a30                vmc_heap_alloc_withGC
 .text.heap_set
                0x0000000008008a50       0x34 /var/folders/_f/jzb7lsz153bclt069nvlpp5r0000gn/T//ccGAufxj.ltrans9.ltrans.o
                0x0000000008008a50                heap_set
 *fill*         0x0000000008008a84        0xc 
 .text.heap_snd
                0x0000000008008a90       0x1c /var/folders/_f/jzb7lsz153bclt069nvlpp5r0000gn/T//ccGAufxj.ltrans9.ltrans.o
                0x0000000008008a90                heap_snd
 *fill*         0x0000000008008aac        0x4 
 .text.heap_fst
                0x0000000008008ab0       0x18 /var/folders/_f/jzb7lsz153bclt069nvlpp5r0000gn/T//ccGAufxj.ltrans9.ltrans.o
                0x0000000008008ab0                heap_fst
 *fill*         0x0000000008008ac8        0x8 
 .text.postSync.isra.2.lto_priv.62
                0x0000000008008ad0       0xf4 /var/folders/_f/jzb7lsz153bclt069nvlpp5r0000gn/T//ccGAufxj.ltrans9.ltrans.o
                0x0000000008008ad0                postSync.isra.2.lto_priv.62
 *fill*         0x0000000008008bc4        0xc 
 .text.chan_send_q_dequeue
                0x0000000008008bd0       0x40 /var/folders/_f/jzb7lsz153bclt069nvlpp5r0000gn/T//ccGAufxj.ltrans9.ltrans.o
                0x0000000008008bd0                chan_send_q_dequeue
 .text.poll_sendq
                0x0000000008008c10       0x48 /var/folders/_f/jzb7lsz153bclt069nvlpp5r0000gn/T//ccGAufxj.ltrans9.ltrans.o
                0x0000000008008c10                poll_sendq
 *fill*         0x0000000008008c58        0x8 
 .text.chan_recv_q_dequeue
                0x0000000008008c60       0x40 /var/folders/_f/jzb7lsz153bclt069nvlpp5r0000gn/T//ccGAufxj.ltrans9.ltrans.o
                0x0000000008008c60                chan_recv_q_dequeue
 .text.poll_recvq
                0x0000000008008ca0       0x48 /var/folders/_f/jzb7lsz153bclt069nvlpp5r0000gn/T//ccGAufxj.ltrans9.ltrans.o
                0x0000000008008ca0                poll_recvq
 .text.memset   0x0000000008008ce8       0x9c /usr/local/Cellar/gcc-arm-none-eabi-49/20150925/bin/../lib/gcc/arm-none-eabi/4.9.3/../../../../arm-none-eabi/lib/armv7e-m/fpu/libg.a(lib_a-memset.o)
                0x0000000008008ce8                memset
 .text._vsnprintf_r
                0x0000000008008d84       0x74 /usr/local/Cellar/gcc-arm-none-eabi-49/20150925/bin/../lib/gcc/arm-none-eabi/4.9.3/../../../../arm-none-eabi/lib/armv7e-m/fpu/libg.a(lib_a-vsnprintf.o)
                0x0000000008008d84                _vsnprintf_r
 .text.vsnprintf
                0x0000000008008df8       0x20 /usr/local/Cellar/gcc-arm-none-eabi-49/20150925/bin/../lib/gcc/arm-none-eabi/4.9.3/../../../../arm-none-eabi/lib/armv7e-m/fpu/libg.a(lib_a-vsnprintf.o)
                0x0000000008008df8                vsnprintf
 .text._svfprintf_r
                0x0000000008008e18     0x14cc /usr/local/Cellar/gcc-arm-none-eabi-49/20150925/bin/../lib/gcc/arm-none-eabi/4.9.3/../../../../arm-none-eabi/lib/armv7e-m/fpu/libg.a(lib_a-svfprintf.o)
                0x0000000008008e18                _svfprintf_r
 .text.quorem   0x000000000800a2e4      0x12c /usr/local/Cellar/gcc-arm-none-eabi-49/20150925/bin/../lib/gcc/arm-none-eabi/4.9.3/../../../../arm-none-eabi/lib/armv7e-m/fpu/libg.a(lib_a-dtoa.o)
 .text._dtoa_r  0x000000000800a410      0xea4 /usr/local/Cellar/gcc-arm-none-eabi-49/20150925/bin/../lib/gcc/arm-none-eabi/4.9.3/../../../../arm-none-eabi/lib/armv7e-m/fpu/libg.a(lib_a-dtoa.o)
                0x000000000800a410                _dtoa_r
 .text._localeconv_r
                0x000000000800b2b4        0x8 /usr/local/Cellar/gcc-arm-none-eabi-49/20150925/bin/../lib/gcc/arm-none-eabi/4.9.3/../../../../arm-none-eabi/lib/armv7e-m/fpu/libg.a(lib_a-locale.o)
                0x000000000800b2b4                _localeconv_r
 .text._malloc_r
                0x000000000800b2bc      0x524 /usr/local/Cellar/gcc-arm-none-eabi-49/20150925/bin/../lib/gcc/arm-none-eabi/4.9.3/../../../../arm-none-eabi/lib/armv7e-m/fpu/libg.a(lib_a-mallocr.o)
                0x000000000800b2bc                _malloc_r
 .text.memchr   0x000000000800b7e0       0x94 /usr/local/Cellar/gcc-arm-none-eabi-49/20150925/bin/../lib/gcc/arm-none-eabi/4.9.3/../../../../arm-none-eabi/lib/armv7e-m/fpu/libg.a(lib_a-memchr.o)
                0x000000000800b7e0                memchr
 .text.__malloc_lock
                0x000000000800b874        0x4 /usr/local/Cellar/gcc-arm-none-eabi-49/20150925/bin/../lib/gcc/arm-none-eabi/4.9.3/../../../../arm-none-eabi/lib/armv7e-m/fpu/libg.a(lib_a-mlock.o)
                0x000000000800b874                __malloc_lock
 .text.__malloc_unlock
                0x000000000800b878        0x4 /usr/local/Cellar/gcc-arm-none-eabi-49/20150925/bin/../lib/gcc/arm-none-eabi/4.9.3/../../../../arm-none-eabi/lib/armv7e-m/fpu/libg.a(lib_a-mlock.o)
                0x000000000800b878                __malloc_unlock
 .text._Balloc  0x000000000800b87c       0x4c /usr/local/Cellar/gcc-arm-none-eabi-49/20150925/bin/../lib/gcc/arm-none-eabi/4.9.3/../../../../arm-none-eabi/lib/armv7e-m/fpu/libg.a(lib_a-mprec.o)
                0x000000000800b87c                _Balloc
 .text._Bfree   0x000000000800b8c8       0x14 /usr/local/Cellar/gcc-arm-none-eabi-49/20150925/bin/../lib/gcc/arm-none-eabi/4.9.3/../../../../arm-none-eabi/lib/armv7e-m/fpu/libg.a(lib_a-mprec.o)
                0x000000000800b8c8                _Bfree
 .text.__multadd
                0x000000000800b8dc       0x84 /usr/local/Cellar/gcc-arm-none-eabi-49/20150925/bin/../lib/gcc/arm-none-eabi/4.9.3/../../../../arm-none-eabi/lib/armv7e-m/fpu/libg.a(lib_a-mprec.o)
                0x000000000800b8dc                __multadd
 .text.__hi0bits
                0x000000000800b960       0x40 /usr/local/Cellar/gcc-arm-none-eabi-49/20150925/bin/../lib/gcc/arm-none-eabi/4.9.3/../../../../arm-none-eabi/lib/armv7e-m/fpu/libg.a(lib_a-mprec.o)
                0x000000000800b960                __hi0bits
 .text.__lo0bits
                0x000000000800b9a0       0x5c /usr/local/Cellar/gcc-arm-none-eabi-49/20150925/bin/../lib/gcc/arm-none-eabi/4.9.3/../../../../arm-none-eabi/lib/armv7e-m/fpu/libg.a(lib_a-mprec.o)
                0x000000000800b9a0                __lo0bits
 .text.__i2b    0x000000000800b9fc       0x14 /usr/local/Cellar/gcc-arm-none-eabi-49/20150925/bin/../lib/gcc/arm-none-eabi/4.9.3/../../../../arm-none-eabi/lib/armv7e-m/fpu/libg.a(lib_a-mprec.o)
                0x000000000800b9fc                __i2b
 .text.__multiply
                0x000000000800ba10      0x134 /usr/local/Cellar/gcc-arm-none-eabi-49/20150925/bin/../lib/gcc/arm-none-eabi/4.9.3/../../../../arm-none-eabi/lib/armv7e-m/fpu/libg.a(lib_a-mprec.o)
                0x000000000800ba10                __multiply
 .text.__pow5mult
                0x000000000800bb44       0xa0 /usr/local/Cellar/gcc-arm-none-eabi-49/20150925/bin/../lib/gcc/arm-none-eabi/4.9.3/../../../../arm-none-eabi/lib/armv7e-m/fpu/libg.a(lib_a-mprec.o)
                0x000000000800bb44                __pow5mult
 .text.__lshift
                0x000000000800bbe4       0xac /usr/local/Cellar/gcc-arm-none-eabi-49/20150925/bin/../lib/gcc/arm-none-eabi/4.9.3/../../../../arm-none-eabi/lib/armv7e-m/fpu/libg.a(lib_a-mprec.o)
                0x000000000800bbe4                __lshift
 .text.__mcmp   0x000000000800bc90       0x48 /usr/local/Cellar/gcc-arm-none-eabi-49/20150925/bin/../lib/gcc/arm-none-eabi/4.9.3/../../../../arm-none-eabi/lib/armv7e-m/fpu/libg.a(lib_a-mprec.o)
                0x000000000800bc90                __mcmp
 .text.__mdiff  0x000000000800bcd8       0xd4 /usr/local/Cellar/gcc-arm-none-eabi-49/20150925/bin/../lib/gcc/arm-none-eabi/4.9.3/../../../../arm-none-eabi/lib/armv7e-m/fpu/libg.a(lib_a-mprec.o)
                0x000000000800bcd8                __mdiff
 .text.__d2b    0x000000000800bdac       0xbc /usr/local/Cellar/gcc-arm-none-eabi-49/20150925/bin/../lib/gcc/arm-none-eabi/4.9.3/../../../../arm-none-eabi/lib/armv7e-m/fpu/libg.a(lib_a-mprec.o)
                0x000000000800bdac                __d2b
 .text.__fpclassifyd
                0x000000000800be68       0x5c /usr/local/Cellar/gcc-arm-none-eabi-49/20150925/bin/../lib/gcc/arm-none-eabi/4.9.3/../../../../arm-none-eabi/lib/armv7e-m/fpu/libg.a(lib_a-s_fpclassify.o)
                0x000000000800be68                __fpclassifyd
 .text.strlen   0x000000000800bec4       0x5c /usr/local/Cellar/gcc-arm-none-eabi-49/20150925/bin/../lib/gcc/arm-none-eabi/4.9.3/../../../../arm-none-eabi/lib/armv7e-m/fpu/libg.a(lib_a-strlen.o)
                0x000000000800bec4                strlen
 .text.__ssprint_r
                0x000000000800bf20      0x104 /usr/local/Cellar/gcc-arm-none-eabi-49/20150925/bin/../lib/gcc/arm-none-eabi/4.9.3/../../../../arm-none-eabi/lib/armv7e-m/fpu/libg.a(lib_a-svfiprintf.o)
                0x000000000800bf20                __ssprint_r
 .text._calloc_r
                0x000000000800c024       0x60 /usr/local/Cellar/gcc-arm-none-eabi-49/20150925/bin/../lib/gcc/arm-none-eabi/4.9.3/../../../../arm-none-eabi/lib/armv7e-m/fpu/libg.a(lib_a-callocr.o)
                0x000000000800c024                _calloc_r
 .text._malloc_trim_r
                0x000000000800c084       0x9c /usr/local/Cellar/gcc-arm-none-eabi-49/20150925/bin/../lib/gcc/arm-none-eabi/4.9.3/../../../../arm-none-eabi/lib/armv7e-m/fpu/libg.a(lib_a-freer.o)
                0x000000000800c084                _malloc_trim_r
 .text._free_r  0x000000000800c120      0x1b0 /usr/local/Cellar/gcc-arm-none-eabi-49/20150925/bin/../lib/gcc/arm-none-eabi/4.9.3/../../../../arm-none-eabi/lib/armv7e-m/fpu/libg.a(lib_a-freer.o)
                0x000000000800c120                _free_r
 .text.memmove  0x000000000800c2d0       0xc8 /usr/local/Cellar/gcc-arm-none-eabi-49/20150925/bin/../lib/gcc/arm-none-eabi/4.9.3/../../../../arm-none-eabi/lib/armv7e-m/fpu/libg.a(lib_a-memmove.o)
                0x000000000800c2d0                memmove
 .text._realloc_r
                0x000000000800c398      0x3ec /usr/local/Cellar/gcc-arm-none-eabi-49/20150925/bin/../lib/gcc/arm-none-eabi/4.9.3/../../../../arm-none-eabi/lib/armv7e-m/fpu/libg.a(lib_a-reallocr.o)
                0x000000000800c398                _realloc_r
 *(.glue_7t)
 .glue_7t       0x0000000000000000        0x0 linker stubs
 *(.glue_7)
 .glue_7        0x0000000000000000        0x0 linker stubs
 *(.gcc*)
                0x000000000800c784                __text_end__ = .

.vfp11_veneer   0x000000000800c784        0x0
 .vfp11_veneer  0x0000000000000000        0x0 linker stubs

.v4_bx          0x000000000800c784        0x0
 .v4_bx         0x0000000000000000        0x0 linker stubs

.iplt           0x000000000800c784        0x0
 .iplt          0x0000000000000000        0x0 ./build/obj/crt0_v7m.o

.rodata         0x000000000800c788      0xef0
                0x000000000800c788                __rodata_base__ = .
 *(.rodata)
 *(.rodata.*)
 .rodata.__func__.6249
                0x000000000800c788        0xc /var/folders/_f/jzb7lsz153bclt069nvlpp5r0000gn/T//ccGAufxj.ltrans0.ltrans.o
 .rodata.__func__.5946.lto_priv.68
                0x000000000800c794        0xc /var/folders/_f/jzb7lsz153bclt069nvlpp5r0000gn/T//ccGAufxj.ltrans0.ltrans.o
 .rodata.__func__.7203
                0x000000000800c7a0        0xc /var/folders/_f/jzb7lsz153bclt069nvlpp5r0000gn/T//ccGAufxj.ltrans0.ltrans.o
 .rodata.__func__.5946.lto_priv.70
                0x000000000800c7ac        0xc /var/folders/_f/jzb7lsz153bclt069nvlpp5r0000gn/T//ccGAufxj.ltrans0.ltrans.o
                0x000000000800c7ac                __func__.5946.lto_priv.70
 .rodata.vmt    0x000000000800c7b8       0x28 /var/folders/_f/jzb7lsz153bclt069nvlpp5r0000gn/T//ccGAufxj.ltrans0.ltrans.o
 .rodata.__func__.8762
                0x000000000800c7e0        0x9 /var/folders/_f/jzb7lsz153bclt069nvlpp5r0000gn/T//ccGAufxj.ltrans0.ltrans.o
 *fill*         0x000000000800c7e9        0x3 
 .rodata.__func__.8480
                0x000000000800c7ec        0x9 /var/folders/_f/jzb7lsz153bclt069nvlpp5r0000gn/T//ccGAufxj.ltrans0.ltrans.o
 *fill*         0x000000000800c7f5        0x3 
 .rodata.__func__.5946.lto_priv.69
                0x000000000800c7f8        0xc /var/folders/_f/jzb7lsz153bclt069nvlpp5r0000gn/T//ccGAufxj.ltrans0.ltrans.o
 .rodata.usbcfg
                0x000000000800c804       0x10 /var/folders/_f/jzb7lsz153bclt069nvlpp5r0000gn/T//ccGAufxj.ltrans0.ltrans.o
 .rodata.fsparams
                0x000000000800c814        0xc /var/folders/_f/jzb7lsz153bclt069nvlpp5r0000gn/T//ccGAufxj.ltrans0.ltrans.o
 .rodata.serusbcfg
                0x000000000800c820        0x8 /var/folders/_f/jzb7lsz153bclt069nvlpp5r0000gn/T//ccGAufxj.ltrans0.ltrans.o
 .rodata.__func__.8413
                0x000000000800c828        0x9 /var/folders/_f/jzb7lsz153bclt069nvlpp5r0000gn/T//ccGAufxj.ltrans0.ltrans.o
 *fill*         0x000000000800c831        0x3 
 .rodata.ch_debug
                0x000000000800c834       0x16 /var/folders/_f/jzb7lsz153bclt069nvlpp5r0000gn/T//ccGAufxj.ltrans0.ltrans.o
 *fill*         0x000000000800c84a        0x2 
 .rodata.__func__.7212
                0x000000000800c84c       0x12 /var/folders/_f/jzb7lsz153bclt069nvlpp5r0000gn/T//ccGAufxj.ltrans0.ltrans.o
 *fill*         0x000000000800c85e        0x2 
 .rodata._stm32_dma_streams
                0x000000000800c860       0xc0 /var/folders/_f/jzb7lsz153bclt069nvlpp5r0000gn/T//ccGAufxj.ltrans0.ltrans.o
 .rodata.dac1_ch1_params
                0x000000000800c920       0x1c /var/folders/_f/jzb7lsz153bclt069nvlpp5r0000gn/T//ccGAufxj.ltrans0.ltrans.o
 .rodata.vmc_container_1_code
                0x000000000800c93c      0x333 /var/folders/_f/jzb7lsz153bclt069nvlpp5r0000gn/T//ccGAufxj.ltrans0.ltrans.o
 *fill*         0x000000000800cc6f        0x1 
 .rodata.hsparams
                0x000000000800cc70        0xc /var/folders/_f/jzb7lsz153bclt069nvlpp5r0000gn/T//ccGAufxj.ltrans0.ltrans.o
 .rodata.str1.4
                0x000000000800cc7c       0x81 /var/folders/_f/jzb7lsz153bclt069nvlpp5r0000gn/T//ccGAufxj.ltrans0.ltrans.o
 *fill*         0x000000000800ccfd        0x3 
 .rodata.__func__.7203
                0x000000000800cd00        0xc /var/folders/_f/jzb7lsz153bclt069nvlpp5r0000gn/T//ccGAufxj.ltrans1.ltrans.o
 .rodata.__func__.6249
                0x000000000800cd0c        0xc /var/folders/_f/jzb7lsz153bclt069nvlpp5r0000gn/T//ccGAufxj.ltrans1.ltrans.o
 .rodata.__func__.7485
                0x000000000800cd18       0x10 /var/folders/_f/jzb7lsz153bclt069nvlpp5r0000gn/T//ccGAufxj.ltrans1.ltrans.o
 .rodata.__func__.7208.lto_priv.113
                0x000000000800cd28        0xc /var/folders/_f/jzb7lsz153bclt069nvlpp5r0000gn/T//ccGAufxj.ltrans1.ltrans.o
 .rodata.__func__.7206.lto_priv.110
                0x000000000800cd34       0x15 /var/folders/_f/jzb7lsz153bclt069nvlpp5r0000gn/T//ccGAufxj.ltrans1.ltrans.o
 *fill*         0x000000000800cd49        0x3 
 .rodata.__func__.7206.lto_priv.111
                0x000000000800cd4c        0xb /var/folders/_f/jzb7lsz153bclt069nvlpp5r0000gn/T//ccGAufxj.ltrans1.ltrans.o
 *fill*         0x000000000800cd57        0x1 
 .rodata.__func__.7223
                0x000000000800cd58        0xd /var/folders/_f/jzb7lsz153bclt069nvlpp5r0000gn/T//ccGAufxj.ltrans1.ltrans.o
 *fill*         0x000000000800cd65        0x3 
 .rodata.__func__.7224
                0x000000000800cd68        0xd /var/folders/_f/jzb7lsz153bclt069nvlpp5r0000gn/T//ccGAufxj.ltrans1.ltrans.o
 *fill*         0x000000000800cd75        0x3 
 .rodata.__func__.7184
                0x000000000800cd78        0xb /var/folders/_f/jzb7lsz153bclt069nvlpp5r0000gn/T//ccGAufxj.ltrans1.ltrans.o
 *fill*         0x000000000800cd83        0x1 
 .rodata.str1.4
                0x000000000800cd84       0x25 /var/folders/_f/jzb7lsz153bclt069nvlpp5r0000gn/T//ccGAufxj.ltrans1.ltrans.o
 *fill*         0x000000000800cda9        0x3 
 .rodata.__func__.7191
                0x000000000800cdac        0xc /var/folders/_f/jzb7lsz153bclt069nvlpp5r0000gn/T//ccGAufxj.ltrans1.ltrans.o
 .rodata.__func__.7239
                0x000000000800cdb8        0xb /var/folders/_f/jzb7lsz153bclt069nvlpp5r0000gn/T//ccGAufxj.ltrans1.ltrans.o
 *fill*         0x000000000800cdc3        0x1 
 .rodata.__func__.7195
                0x000000000800cdc4       0x11 /var/folders/_f/jzb7lsz153bclt069nvlpp5r0000gn/T//ccGAufxj.ltrans1.ltrans.o
 *fill*         0x000000000800cdd5        0x3 
 .rodata.__func__.7196
                0x000000000800cdd8       0x14 /var/folders/_f/jzb7lsz153bclt069nvlpp5r0000gn/T//ccGAufxj.ltrans1.ltrans.o
 .rodata.__func__.7208.lto_priv.112
                0x000000000800cdec        0xb /var/folders/_f/jzb7lsz153bclt069nvlpp5r0000gn/T//ccGAufxj.ltrans1.ltrans.o
 *fill*         0x000000000800cdf7        0x1 
 .rodata.__func__.8409
                0x000000000800cdf8        0xd /var/folders/_f/jzb7lsz153bclt069nvlpp5r0000gn/T//ccGAufxj.ltrans1.ltrans.o
 *fill*         0x000000000800ce05        0x3 
 .rodata.__func__.5946.lto_priv.107
                0x000000000800ce08        0xc /var/folders/_f/jzb7lsz153bclt069nvlpp5r0000gn/T//ccGAufxj.ltrans1.ltrans.o
 .rodata.__func__.6126
                0x000000000800ce14        0xc /var/folders/_f/jzb7lsz153bclt069nvlpp5r0000gn/T//ccGAufxj.ltrans1.ltrans.o
 .rodata.__func__.5946.lto_priv.109
                0x000000000800ce20        0xc /var/folders/_f/jzb7lsz153bclt069nvlpp5r0000gn/T//ccGAufxj.ltrans1.ltrans.o
 .rodata.__func__.8490
                0x000000000800ce2c        0xa /var/folders/_f/jzb7lsz153bclt069nvlpp5r0000gn/T//ccGAufxj.ltrans4.ltrans.o
 *fill*         0x000000000800ce36        0x2 
 .rodata.__func__.8766
                0x000000000800ce38       0x1b /var/folders/_f/jzb7lsz153bclt069nvlpp5r0000gn/T//ccGAufxj.ltrans4.ltrans.o
 *fill*         0x000000000800ce53        0x1 
 .rodata.__func__.8485
                0x000000000800ce54        0xa /var/folders/_f/jzb7lsz153bclt069nvlpp5r0000gn/T//ccGAufxj.ltrans4.ltrans.o
 *fill*         0x000000000800ce5e        0x2 
 .rodata.__func__.8465
                0x000000000800ce60        0xa /var/folders/_f/jzb7lsz153bclt069nvlpp5r0000gn/T//ccGAufxj.ltrans4.ltrans.o
 *fill*         0x000000000800ce6a        0x2 
 .rodata.__func__.8470
                0x000000000800ce6c        0xa /var/folders/_f/jzb7lsz153bclt069nvlpp5r0000gn/T//ccGAufxj.ltrans4.ltrans.o
 *fill*         0x000000000800ce76        0x2 
 .rodata.__func__.8841
                0x000000000800ce78        0xa /var/folders/_f/jzb7lsz153bclt069nvlpp5r0000gn/T//ccGAufxj.ltrans4.ltrans.o
 *fill*         0x000000000800ce82        0x2 
 .rodata.__func__.8475
                0x000000000800ce84        0xa /var/folders/_f/jzb7lsz153bclt069nvlpp5r0000gn/T//ccGAufxj.ltrans4.ltrans.o
 *fill*         0x000000000800ce8e        0x2 
 .rodata.str1.4
                0x000000000800ce90       0x25 /var/folders/_f/jzb7lsz153bclt069nvlpp5r0000gn/T//ccGAufxj.ltrans4.ltrans.o
 *fill*         0x000000000800ceb5        0x3 
 .rodata.__func__.7236
                0x000000000800ceb8        0xc /var/folders/_f/jzb7lsz153bclt069nvlpp5r0000gn/T//ccGAufxj.ltrans4.ltrans.o
 .rodata.ep0config
                0x000000000800cec4       0x24 /var/folders/_f/jzb7lsz153bclt069nvlpp5r0000gn/T//ccGAufxj.ltrans4.ltrans.o
 .rodata.__func__.8760.lto_priv.117
                0x000000000800cee8        0xe /var/folders/_f/jzb7lsz153bclt069nvlpp5r0000gn/T//ccGAufxj.ltrans4.ltrans.o
                0x000000000800cee8                __func__.8760.lto_priv.117
 *fill*         0x000000000800cef6        0x2 
 .rodata.__func__.8406
                0x000000000800cef8        0x9 /var/folders/_f/jzb7lsz153bclt069nvlpp5r0000gn/T//ccGAufxj.ltrans4.ltrans.o
 *fill*         0x000000000800cf01        0x3 
 .rodata.__func__.8845
                0x000000000800cf04        0xa /var/folders/_f/jzb7lsz153bclt069nvlpp5r0000gn/T//ccGAufxj.ltrans4.ltrans.o
 *fill*         0x000000000800cf0e        0x2 
 .rodata.__func__.8480
                0x000000000800cf10        0xa /var/folders/_f/jzb7lsz153bclt069nvlpp5r0000gn/T//ccGAufxj.ltrans4.ltrans.o
 *fill*         0x000000000800cf1a        0x2 
 .rodata.vcom_configuration_descriptor_data
                0x000000000800cf1c       0x43 /var/folders/_f/jzb7lsz153bclt069nvlpp5r0000gn/T//ccGAufxj.ltrans5.ltrans.o
 *fill*         0x000000000800cf5f        0x1 
 .rodata.__func__.5946.lto_priv.97
                0x000000000800cf60        0xc /var/folders/_f/jzb7lsz153bclt069nvlpp5r0000gn/T//ccGAufxj.ltrans5.ltrans.o
 .rodata.vcom_string0
                0x000000000800cf6c        0x4 /var/folders/_f/jzb7lsz153bclt069nvlpp5r0000gn/T//ccGAufxj.ltrans5.ltrans.o
 .rodata.vcom_string1
                0x000000000800cf70       0x26 /var/folders/_f/jzb7lsz153bclt069nvlpp5r0000gn/T//ccGAufxj.ltrans5.ltrans.o
 *fill*         0x000000000800cf96        0x2 
 .rodata.vcom_string2
                0x000000000800cf98       0x38 /var/folders/_f/jzb7lsz153bclt069nvlpp5r0000gn/T//ccGAufxj.ltrans5.ltrans.o
 .rodata.vcom_string3
                0x000000000800cfd0        0x8 /var/folders/_f/jzb7lsz153bclt069nvlpp5r0000gn/T//ccGAufxj.ltrans5.ltrans.o
 .rodata.vcom_strings
                0x000000000800cfd8       0x20 /var/folders/_f/jzb7lsz153bclt069nvlpp5r0000gn/T//ccGAufxj.ltrans5.ltrans.o
 .rodata.__func__.7193
                0x000000000800cff8        0xd /var/folders/_f/jzb7lsz153bclt069nvlpp5r0000gn/T//ccGAufxj.ltrans5.ltrans.o
 *fill*         0x000000000800d005        0x3 
 .rodata.__func__.8507
                0x000000000800d008        0xc /var/folders/_f/jzb7lsz153bclt069nvlpp5r0000gn/T//ccGAufxj.ltrans5.ltrans.o
 .rodata.vcom_device_descriptor
                0x000000000800d014        0x8 /var/folders/_f/jzb7lsz153bclt069nvlpp5r0000gn/T//ccGAufxj.ltrans5.ltrans.o
 .rodata.__func__.8522
                0x000000000800d01c        0xa /var/folders/_f/jzb7lsz153bclt069nvlpp5r0000gn/T//ccGAufxj.ltrans5.ltrans.o
 *fill*         0x000000000800d026        0x2 
 .rodata.vcom_device_descriptor_data
                0x000000000800d028       0x12 /var/folders/_f/jzb7lsz153bclt069nvlpp5r0000gn/T//ccGAufxj.ltrans5.ltrans.o
 *fill*         0x000000000800d03a        0x2 
 .rodata.vcom_configuration_descriptor
                0x000000000800d03c        0x8 /var/folders/_f/jzb7lsz153bclt069nvlpp5r0000gn/T//ccGAufxj.ltrans5.ltrans.o
 .rodata.str1.4
                0x000000000800d044      0x139 /var/folders/_f/jzb7lsz153bclt069nvlpp5r0000gn/T//ccGAufxj.ltrans5.ltrans.o
                                        0x151 (size before relaxing)
 *fill*         0x000000000800d17d        0x3 
 .rodata.ep2config
                0x000000000800d180       0x24 /var/folders/_f/jzb7lsz153bclt069nvlpp5r0000gn/T//ccGAufxj.ltrans5.ltrans.o
 .rodata.__func__.7238
                0x000000000800d1a4       0x12 /var/folders/_f/jzb7lsz153bclt069nvlpp5r0000gn/T//ccGAufxj.ltrans5.ltrans.o
 *fill*         0x000000000800d1b6        0x2 
 .rodata.__func__.8423
                0x000000000800d1b8        0xf /var/folders/_f/jzb7lsz153bclt069nvlpp5r0000gn/T//ccGAufxj.ltrans5.ltrans.o
 *fill*         0x000000000800d1c7        0x1 
 .rodata.ep1config
                0x000000000800d1c8       0x24 /var/folders/_f/jzb7lsz153bclt069nvlpp5r0000gn/T//ccGAufxj.ltrans5.ltrans.o
 .rodata.__func__.7205
                0x000000000800d1ec        0xa /var/folders/_f/jzb7lsz153bclt069nvlpp5r0000gn/T//ccGAufxj.ltrans5.ltrans.o
 *fill*         0x000000000800d1f6        0x2 
 .rodata.__func__.5946.lto_priv.96
                0x000000000800d1f8        0xc /var/folders/_f/jzb7lsz153bclt069nvlpp5r0000gn/T//ccGAufxj.ltrans5.ltrans.o
 .rodata.__func__.8445
                0x000000000800d204        0x9 /var/folders/_f/jzb7lsz153bclt069nvlpp5r0000gn/T//ccGAufxj.ltrans6.ltrans.o
 *fill*         0x000000000800d20d        0x3 
 .rodata.__func__.8450
                0x000000000800d210        0x9 /var/folders/_f/jzb7lsz153bclt069nvlpp5r0000gn/T//ccGAufxj.ltrans6.ltrans.o
 *fill*         0x000000000800d219        0x3 
 .rodata.__func__.8455
                0x000000000800d21c        0xa /var/folders/_f/jzb7lsz153bclt069nvlpp5r0000gn/T//ccGAufxj.ltrans6.ltrans.o
 *fill*         0x000000000800d226        0x2 
 .rodata.__func__.8460
                0x000000000800d228        0xa /var/folders/_f/jzb7lsz153bclt069nvlpp5r0000gn/T//ccGAufxj.ltrans6.ltrans.o
 *fill*         0x000000000800d232        0x2 
 .rodata.__func__.8784
                0x000000000800d234       0x15 /var/folders/_f/jzb7lsz153bclt069nvlpp5r0000gn/T//ccGAufxj.ltrans6.ltrans.o
 *fill*         0x000000000800d249        0x3 
 .rodata.zero_status
                0x000000000800d24c        0x2 /var/folders/_f/jzb7lsz153bclt069nvlpp5r0000gn/T//ccGAufxj.ltrans6.ltrans.o
 *fill*         0x000000000800d24e        0x2 
 .rodata.__func__.8795
                0x000000000800d250       0x11 /var/folders/_f/jzb7lsz153bclt069nvlpp5r0000gn/T//ccGAufxj.ltrans6.ltrans.o
 *fill*         0x000000000800d261        0x3 
 .rodata.active_status
                0x000000000800d264        0x2 /var/folders/_f/jzb7lsz153bclt069nvlpp5r0000gn/T//ccGAufxj.ltrans6.ltrans.o
 *fill*         0x000000000800d266        0x2 
 .rodata.__func__.8846
                0x000000000800d268        0xb /var/folders/_f/jzb7lsz153bclt069nvlpp5r0000gn/T//ccGAufxj.ltrans6.ltrans.o
 *fill*         0x000000000800d273        0x1 
 .rodata.__func__.8860
                0x000000000800d274        0xc /var/folders/_f/jzb7lsz153bclt069nvlpp5r0000gn/T//ccGAufxj.ltrans6.ltrans.o
 .rodata.__func__.8437
                0x000000000800d280        0x9 /var/folders/_f/jzb7lsz153bclt069nvlpp5r0000gn/T//ccGAufxj.ltrans6.ltrans.o
 *fill*         0x000000000800d289        0x3 
 .rodata.__func__.8407
                0x000000000800d28c        0x9 /var/folders/_f/jzb7lsz153bclt069nvlpp5r0000gn/T//ccGAufxj.ltrans6.ltrans.o
 *fill*         0x000000000800d295        0x3 
 .rodata.__func__.8412
                0x000000000800d298        0x9 /var/folders/_f/jzb7lsz153bclt069nvlpp5r0000gn/T//ccGAufxj.ltrans6.ltrans.o
 *fill*         0x000000000800d2a1        0x3 
 .rodata.__func__.8415
                0x000000000800d2a4        0x9 /var/folders/_f/jzb7lsz153bclt069nvlpp5r0000gn/T//ccGAufxj.ltrans6.ltrans.o
 *fill*         0x000000000800d2ad        0x3 
 .rodata.__func__.8420
                0x000000000800d2b0        0x9 /var/folders/_f/jzb7lsz153bclt069nvlpp5r0000gn/T//ccGAufxj.ltrans6.ltrans.o
 *fill*         0x000000000800d2b9        0x3 
 .rodata.__func__.8417
                0x000000000800d2bc        0x9 /var/folders/_f/jzb7lsz153bclt069nvlpp5r0000gn/T//ccGAufxj.ltrans6.ltrans.o
 *fill*         0x000000000800d2c5        0x3 
 .rodata.__func__.8422
                0x000000000800d2c8        0x9 /var/folders/_f/jzb7lsz153bclt069nvlpp5r0000gn/T//ccGAufxj.ltrans6.ltrans.o
 *fill*         0x000000000800d2d1        0x3 
 .rodata.halted_status
                0x000000000800d2d4        0x2 /var/folders/_f/jzb7lsz153bclt069nvlpp5r0000gn/T//ccGAufxj.ltrans6.ltrans.o
 *fill*         0x000000000800d2d6        0x2 
 .rodata.__func__.8425
                0x000000000800d2d8        0x9 /var/folders/_f/jzb7lsz153bclt069nvlpp5r0000gn/T//ccGAufxj.ltrans6.ltrans.o
 *fill*         0x000000000800d2e1        0x3 
 .rodata.__func__.8430
                0x000000000800d2e4        0x9 /var/folders/_f/jzb7lsz153bclt069nvlpp5r0000gn/T//ccGAufxj.ltrans6.ltrans.o
 *fill*         0x000000000800d2ed        0x3 
 .rodata.__func__.8427
                0x000000000800d2f0        0x9 /var/folders/_f/jzb7lsz153bclt069nvlpp5r0000gn/T//ccGAufxj.ltrans6.ltrans.o
 *fill*         0x000000000800d2f9        0x3 
 .rodata.__func__.8432
                0x000000000800d2fc        0x9 /var/folders/_f/jzb7lsz153bclt069nvlpp5r0000gn/T//ccGAufxj.ltrans6.ltrans.o
 *fill*         0x000000000800d305        0x3 
 .rodata.__func__.8435
                0x000000000800d308        0x9 /var/folders/_f/jzb7lsz153bclt069nvlpp5r0000gn/T//ccGAufxj.ltrans6.ltrans.o
 *fill*         0x000000000800d311        0x3 
 .rodata.__func__.8440
                0x000000000800d314        0x9 /var/folders/_f/jzb7lsz153bclt069nvlpp5r0000gn/T//ccGAufxj.ltrans6.ltrans.o
 *fill*         0x000000000800d31d        0x3 
 .rodata.__func__.8803
                0x000000000800d320       0x12 /var/folders/_f/jzb7lsz153bclt069nvlpp5r0000gn/T//ccGAufxj.ltrans6.ltrans.o
 *fill*         0x000000000800d332        0x2 
 .rodata.__func__.8807
                0x000000000800d334       0x13 /var/folders/_f/jzb7lsz153bclt069nvlpp5r0000gn/T//ccGAufxj.ltrans7.ltrans.o
 *fill*         0x000000000800d347        0x1 
 .rodata.__func__.8821
                0x000000000800d348       0x10 /var/folders/_f/jzb7lsz153bclt069nvlpp5r0000gn/T//ccGAufxj.ltrans7.ltrans.o
 .rodata.__func__.8747
                0x000000000800d358       0x17 /var/folders/_f/jzb7lsz153bclt069nvlpp5r0000gn/T//ccGAufxj.ltrans7.ltrans.o
 *fill*         0x000000000800d36f        0x1 
 .rodata.__func__.8760.lto_priv.116
                0x000000000800d370        0xf /var/folders/_f/jzb7lsz153bclt069nvlpp5r0000gn/T//ccGAufxj.ltrans7.ltrans.o
 *fill*         0x000000000800d37f        0x1 
 .rodata.__func__.8779
                0x000000000800d380       0x11 /var/folders/_f/jzb7lsz153bclt069nvlpp5r0000gn/T//ccGAufxj.ltrans7.ltrans.o
 *fill*         0x000000000800d391        0x3 
 .rodata.__func__.8452
                0x000000000800d394        0x5 /var/folders/_f/jzb7lsz153bclt069nvlpp5r0000gn/T//ccGAufxj.ltrans7.ltrans.o
 *fill*         0x000000000800d399        0x3 
 .rodata.__func__.8726
                0x000000000800d39c       0x13 /var/folders/_f/jzb7lsz153bclt069nvlpp5r0000gn/T//ccGAufxj.ltrans7.ltrans.o
 *fill*         0x000000000800d3af        0x1 
 .rodata.ram_areas
                0x000000000800d3b0       0x80 /var/folders/_f/jzb7lsz153bclt069nvlpp5r0000gn/T//ccGAufxj.ltrans7.ltrans.o
 .rodata.__func__.8740
                0x000000000800d430       0x19 /var/folders/_f/jzb7lsz153bclt069nvlpp5r0000gn/T//ccGAufxj.ltrans7.ltrans.o
 *fill*         0x000000000800d449        0x3 
 .rodata.__func__.8798
                0x000000000800d44c       0x1a /var/folders/_f/jzb7lsz153bclt069nvlpp5r0000gn/T//ccGAufxj.ltrans7.ltrans.o
 *fill*         0x000000000800d466        0x2 
 .rodata.__func__.8468
                0x000000000800d468        0x9 /var/folders/_f/jzb7lsz153bclt069nvlpp5r0000gn/T//ccGAufxj.ltrans7.ltrans.o
 *fill*         0x000000000800d471        0x3 
 .rodata.__func__.6249
                0x000000000800d474        0xc /var/folders/_f/jzb7lsz153bclt069nvlpp5r0000gn/T//ccGAufxj.ltrans7.ltrans.o
 .rodata.__func__.8784
                0x000000000800d480       0x17 /var/folders/_f/jzb7lsz153bclt069nvlpp5r0000gn/T//ccGAufxj.ltrans7.ltrans.o
 *fill*         0x000000000800d497        0x1 
 .rodata.__func__.8416
                0x000000000800d498        0xb /var/folders/_f/jzb7lsz153bclt069nvlpp5r0000gn/T//ccGAufxj.ltrans7.ltrans.o
 *fill*         0x000000000800d4a3        0x1 
 .rodata.__func__.8430
                0x000000000800d4a4       0x14 /var/folders/_f/jzb7lsz153bclt069nvlpp5r0000gn/T//ccGAufxj.ltrans8.ltrans.o
 .rodata.__func__.7881
                0x000000000800d4b8        0x8 /var/folders/_f/jzb7lsz153bclt069nvlpp5r0000gn/T//ccGAufxj.ltrans8.ltrans.o
 .rodata.__func__.7211
                0x000000000800d4c0        0xd /var/folders/_f/jzb7lsz153bclt069nvlpp5r0000gn/T//ccGAufxj.ltrans8.ltrans.o
 *fill*         0x000000000800d4cd        0x3 
 .rodata.str1.4
                0x000000000800d4d0        0xd /var/folders/_f/jzb7lsz153bclt069nvlpp5r0000gn/T//ccGAufxj.ltrans8.ltrans.o
                                         0x1d (size before relaxing)
 *fill*         0x000000000800d4dd        0x3 
 .rodata.__func__.6138
                0x000000000800d4e0       0x14 /var/folders/_f/jzb7lsz153bclt069nvlpp5r0000gn/T//ccGAufxj.ltrans8.ltrans.o
 .rodata.__func__.5946.lto_priv.108
                0x000000000800d4f4        0xc /var/folders/_f/jzb7lsz153bclt069nvlpp5r0000gn/T//ccGAufxj.ltrans8.ltrans.o
                0x000000000800d4f4                __func__.5946.lto_priv.108
 .rodata.str1.4
                0x000000000800d500        0x2 /usr/local/Cellar/gcc-arm-none-eabi-49/20150925/bin/../lib/gcc/arm-none-eabi/4.9.3/../../../../arm-none-eabi/lib/armv7e-m/fpu/libg.a(lib_a-impure.o)
 *fill*         0x000000000800d502        0x2 
 .rodata.zeroes.6911
                0x000000000800d504       0x10 /usr/local/Cellar/gcc-arm-none-eabi-49/20150925/bin/../lib/gcc/arm-none-eabi/4.9.3/../../../../arm-none-eabi/lib/armv7e-m/fpu/libg.a(lib_a-svfprintf.o)
 .rodata.blanks.6910
                0x000000000800d514       0x10 /usr/local/Cellar/gcc-arm-none-eabi-49/20150925/bin/../lib/gcc/arm-none-eabi/4.9.3/../../../../arm-none-eabi/lib/armv7e-m/fpu/libg.a(lib_a-svfprintf.o)
 .rodata.str1.4
                0x000000000800d524       0x35 /usr/local/Cellar/gcc-arm-none-eabi-49/20150925/bin/../lib/gcc/arm-none-eabi/4.9.3/../../../../arm-none-eabi/lib/armv7e-m/fpu/libg.a(lib_a-svfprintf.o)
                                         0x42 (size before relaxing)
 *fill*         0x000000000800d559        0x3 
 .rodata.str1.4
                0x000000000800d55c       0x10 /usr/local/Cellar/gcc-arm-none-eabi-49/20150925/bin/../lib/gcc/arm-none-eabi/4.9.3/../../../../arm-none-eabi/lib/armv7e-m/fpu/libg.a(lib_a-dtoa.o)
                                         0x12 (size before relaxing)
 .rodata.str1.4
                0x000000000800d56c        0xc /usr/local/Cellar/gcc-arm-none-eabi-49/20150925/bin/../lib/gcc/arm-none-eabi/4.9.3/../../../../arm-none-eabi/lib/armv7e-m/fpu/libg.a(lib_a-locale.o)
                                         0x12 (size before relaxing)
 .rodata.__mprec_tens
                0x000000000800d578       0xc8 /usr/local/Cellar/gcc-arm-none-eabi-49/20150925/bin/../lib/gcc/arm-none-eabi/4.9.3/../../../../arm-none-eabi/lib/armv7e-m/fpu/libg.a(lib_a-mprec.o)
                0x000000000800d578                __mprec_tens
 .rodata.p05.5302
                0x000000000800d640        0xc /usr/local/Cellar/gcc-arm-none-eabi-49/20150925/bin/../lib/gcc/arm-none-eabi/4.9.3/../../../../arm-none-eabi/lib/armv7e-m/fpu/libg.a(lib_a-mprec.o)
 *fill*         0x000000000800d64c        0x4 
 .rodata.__mprec_bigtens
                0x000000000800d650       0x28 /usr/local/Cellar/gcc-arm-none-eabi-49/20150925/bin/../lib/gcc/arm-none-eabi/4.9.3/../../../../arm-none-eabi/lib/armv7e-m/fpu/libg.a(lib_a-mprec.o)
                0x000000000800d650                __mprec_bigtens
                0x000000000800d678                . = ALIGN (0x4)
                0x000000000800d678                __rodata_end__ = .

.ARM.extab
 *(.ARM.extab* .gnu.linkonce.armextab.*)

.ARM.exidx      0x000000000800d678        0x8
                0x000000000800d678                __exidx_base__ = .
                0x000000000800d678                __exidx_start = .
 *(.ARM.exidx* .gnu.linkonce.armexidx.*)
 .ARM.exidx     0x000000000800d678        0x8 /usr/local/Cellar/gcc-arm-none-eabi-49/20150925/bin/../lib/gcc/arm-none-eabi/4.9.3/armv7e-m/fpu/libgcc.a(_divdi3.o)
 .ARM.exidx     0x000000000800d680        0x0 /usr/local/Cellar/gcc-arm-none-eabi-49/20150925/bin/../lib/gcc/arm-none-eabi/4.9.3/armv7e-m/fpu/libgcc.a(_udivdi3.o)
                                          0x8 (size before relaxing)
                0x000000000800d680                __exidx_end__ = .
                0x000000000800d680                __exidx_end = .

.rel.dyn        0x000000000800d680        0x0
 .rel.iplt      0x0000000000000000        0x0 ./build/obj/crt0_v7m.o

.eh_frame_hdr
 *(.eh_frame_hdr)

.eh_frame
 *(.eh_frame)

.data           0x0000000020000800      0x974 load address 0x000000000800d680
                0x000000000800d680                PROVIDE (_textdata, LOADADDR (.data))
                0x0000000020000800                PROVIDE (_data, .)
                0x000000000800d680                __textdata_base__ = LOADADDR (.data)
                0x0000000020000800                __data_base__ = .
 *(.data)
 *(.data.*)
 .data.msg_pool1
                0x0000000020000800       0x10 /var/folders/_f/jzb7lsz153bclt069nvlpp5r0000gn/T//ccGAufxj.ltrans0.ltrans.o
 .data.tim      0x0000000020000810        0x4 /var/folders/_f/jzb7lsz153bclt069nvlpp5r0000gn/T//ccGAufxj.ltrans0.ltrans.o
                0x0000000020000810                tim
 .data.evaluators
                0x0000000020000814       0xe0 /var/folders/_f/jzb7lsz153bclt069nvlpp5r0000gn/T//ccGAufxj.ltrans5.ltrans.o
 .data.linecoding
                0x00000000200008f4        0x7 /var/folders/_f/jzb7lsz153bclt069nvlpp5r0000gn/T//ccGAufxj.ltrans7.ltrans.o
 *fill*         0x00000000200008fb        0x5 
 .data.impure_data
                0x0000000020000900      0x428 /usr/local/Cellar/gcc-arm-none-eabi-49/20150925/bin/../lib/gcc/arm-none-eabi/4.9.3/../../../../arm-none-eabi/lib/armv7e-m/fpu/libg.a(lib_a-impure.o)
 .data._impure_ptr
                0x0000000020000d28        0x4 /usr/local/Cellar/gcc-arm-none-eabi-49/20150925/bin/../lib/gcc/arm-none-eabi/4.9.3/../../../../arm-none-eabi/lib/armv7e-m/fpu/libg.a(lib_a-impure.o)
                0x0000000020000d28                _impure_ptr
 .data.lconv    0x0000000020000d2c       0x38 /usr/local/Cellar/gcc-arm-none-eabi-49/20150925/bin/../lib/gcc/arm-none-eabi/4.9.3/../../../../arm-none-eabi/lib/armv7e-m/fpu/libg.a(lib_a-locale.o)
 .data.__malloc_av_
                0x0000000020000d64      0x408 /usr/local/Cellar/gcc-arm-none-eabi-49/20150925/bin/../lib/gcc/arm-none-eabi/4.9.3/../../../../arm-none-eabi/lib/armv7e-m/fpu/libg.a(lib_a-mallocr.o)
                0x0000000020000d64                __malloc_av_
 .data.__malloc_trim_threshold
                0x000000002000116c        0x4 /usr/local/Cellar/gcc-arm-none-eabi-49/20150925/bin/../lib/gcc/arm-none-eabi/4.9.3/../../../../arm-none-eabi/lib/armv7e-m/fpu/libg.a(lib_a-mallocr.o)
                0x000000002000116c                __malloc_trim_threshold
 .data.__malloc_sbrk_base
                0x0000000020001170        0x4 /usr/local/Cellar/gcc-arm-none-eabi-49/20150925/bin/../lib/gcc/arm-none-eabi/4.9.3/../../../../arm-none-eabi/lib/armv7e-m/fpu/libg.a(lib_a-mallocr.o)
                0x0000000020001170                __malloc_sbrk_base
 *(.ramtext)
                0x0000000020001174                . = ALIGN (0x4)
                0x0000000020001174                PROVIDE (_edata, .)
                0x0000000020001174                __data_end__ = .

.igot.plt       0x0000000020001174        0x0 load address 0x000000000800dff4
 .igot.plt      0x0000000000000000        0x0 ./build/obj/crt0_v7m.o

.bss            0x0000000020001178     0xadd8 load address 0x000000000800dff4
                0x0000000020001178                __bss_base__ = .
 *(.bss)
 *(.bss.*)
 .bss.vmc_container_1_heap
                0x0000000020001178      0x800 /var/folders/_f/jzb7lsz153bclt069nvlpp5r0000gn/T//ccGAufxj.ltrans0.ltrans.o
 .bss.b         0x0000000020001978      0x100 /var/folders/_f/jzb7lsz153bclt069nvlpp5r0000gn/T//ccGAufxj.ltrans0.ltrans.o
 .bss.thread_wa
                0x0000000020001a78      0x950 /var/folders/_f/jzb7lsz153bclt069nvlpp5r0000gn/T//ccGAufxj.ltrans0.ltrans.o
 .bss.msgs      0x00000000200023c8      0x600 /var/folders/_f/jzb7lsz153bclt069nvlpp5r0000gn/T//ccGAufxj.ltrans0.ltrans.o
 .bss.vmc_container_1_arrays
                0x00000000200029c8        0x0 /var/folders/_f/jzb7lsz153bclt069nvlpp5r0000gn/T//ccGAufxj.ltrans0.ltrans.o
 .bss.vmc_container_1_channels
                0x00000000200029c8     0x2580 /var/folders/_f/jzb7lsz153bclt069nvlpp5r0000gn/T//ccGAufxj.ltrans0.ltrans.o
 .bss.thread_data
                0x0000000020004f48        0x8 /var/folders/_f/jzb7lsz153bclt069nvlpp5r0000gn/T//ccGAufxj.ltrans0.ltrans.o
 .bss.counter_high_word.lto_priv.100
                0x0000000020004f50        0x4 /var/folders/_f/jzb7lsz153bclt069nvlpp5r0000gn/T//ccGAufxj.ltrans0.ltrans.o
                0x0000000020004f50                counter_high_word.lto_priv.100
 *fill*         0x0000000020004f54        0x4 
 .bss.vm_containers
                0x0000000020004f58     0x5140 /var/folders/_f/jzb7lsz153bclt069nvlpp5r0000gn/T//ccGAufxj.ltrans0.ltrans.o
 .bss._pal_events
                0x000000002000a098       0x80 /var/folders/_f/jzb7lsz153bclt069nvlpp5r0000gn/T//ccGAufxj.ltrans0.ltrans.o
                0x000000002000a098                _pal_events
 .bss.mb        0x000000002000a118       0x28 /var/folders/_f/jzb7lsz153bclt069nvlpp5r0000gn/T//ccGAufxj.ltrans0.ltrans.o
 .bss.ch_idle_thread_wa
                0x000000002000a140      0x160 /var/folders/_f/jzb7lsz153bclt069nvlpp5r0000gn/T//ccGAufxj.ltrans0.ltrans.o
 .bss.vmc_container_1_rdyq
                0x000000002000a2a0       0x60 /var/folders/_f/jzb7lsz153bclt069nvlpp5r0000gn/T//ccGAufxj.ltrans0.ltrans.o
 .bss.alarm.lto_priv.99
                0x000000002000a300       0x10 /var/folders/_f/jzb7lsz153bclt069nvlpp5r0000gn/T//ccGAufxj.ltrans0.ltrans.o
                0x000000002000a300                alarm.lto_priv.99
 .bss.threads   0x000000002000a310        0x4 /var/folders/_f/jzb7lsz153bclt069nvlpp5r0000gn/T//ccGAufxj.ltrans0.ltrans.o
 .bss.chibios_interop
                0x000000002000a314        0xc /var/folders/_f/jzb7lsz153bclt069nvlpp5r0000gn/T//ccGAufxj.ltrans0.ltrans.o
 .bss.ch_factory
                0x000000002000a320       0x48 /var/folders/_f/jzb7lsz153bclt069nvlpp5r0000gn/T//ccGAufxj.ltrans0.ltrans.o
 .bss.dbg_print_fun
                0x000000002000a368        0x4 /var/folders/_f/jzb7lsz153bclt069nvlpp5r0000gn/T//ccGAufxj.ltrans0.ltrans.o
                0x000000002000a368                dbg_print_fun
 .bss.vmc_container_1_waitq
                0x000000002000a36c       0x60 /var/folders/_f/jzb7lsz153bclt069nvlpp5r0000gn/T//ccGAufxj.ltrans0.ltrans.o
 .bss.USBD1     0x000000002000a3cc       0x78 /var/folders/_f/jzb7lsz153bclt069nvlpp5r0000gn/T//ccGAufxj.ltrans0.ltrans.o
                0x000000002000a3cc                USBD1
 .bss.USBD2     0x000000002000a444       0x78 /var/folders/_f/jzb7lsz153bclt069nvlpp5r0000gn/T//ccGAufxj.ltrans0.ltrans.o
                0x000000002000a444                USBD2
 .bss.ll_dac    0x000000002000a4bc       0x1c /var/folders/_f/jzb7lsz153bclt069nvlpp5r0000gn/T//ccGAufxj.ltrans0.ltrans.o
 .bss.dma.lto_priv.114
                0x000000002000a4d8       0x84 /var/folders/_f/jzb7lsz153bclt069nvlpp5r0000gn/T//ccGAufxj.ltrans0.ltrans.o
                0x000000002000a4d8                dma.lto_priv.114
 .bss.counter_freq
                0x000000002000a55c        0x4 /var/folders/_f/jzb7lsz153bclt069nvlpp5r0000gn/T//ccGAufxj.ltrans0.ltrans.o
 .bss.default_heap
                0x000000002000a560       0x1c /var/folders/_f/jzb7lsz153bclt069nvlpp5r0000gn/T//ccGAufxj.ltrans0.ltrans.o
 .bss.vmc_container_1_stack
                0x000000002000a57c      0x400 /var/folders/_f/jzb7lsz153bclt069nvlpp5r0000gn/T//ccGAufxj.ltrans0.ltrans.o
 .bss.interop   0x000000002000a97c        0x4 /var/folders/_f/jzb7lsz153bclt069nvlpp5r0000gn/T//ccGAufxj.ltrans0.ltrans.o
                0x000000002000a97c                interop
 .bss.msg_pools
                0x000000002000a980        0x4 /var/folders/_f/jzb7lsz153bclt069nvlpp5r0000gn/T//ccGAufxj.ltrans0.ltrans.o
 .bss.DACD1     0x000000002000a984       0x30 /var/folders/_f/jzb7lsz153bclt069nvlpp5r0000gn/T//ccGAufxj.ltrans0.ltrans.o
 .bss.ep0setup_buffer
                0x000000002000a9b4        0x8 /var/folders/_f/jzb7lsz153bclt069nvlpp5r0000gn/T//ccGAufxj.ltrans4.ltrans.o
 .bss.ep0_state
                0x000000002000a9bc       0x10 /var/folders/_f/jzb7lsz153bclt069nvlpp5r0000gn/T//ccGAufxj.ltrans4.ltrans.o
 .bss.ep2instate
                0x000000002000a9cc       0x10 /var/folders/_f/jzb7lsz153bclt069nvlpp5r0000gn/T//ccGAufxj.ltrans5.ltrans.o
 .bss.buf       0x000000002000a9dc      0x800 /var/folders/_f/jzb7lsz153bclt069nvlpp5r0000gn/T//ccGAufxj.ltrans5.ltrans.o
 .bss.ep1outstate
                0x000000002000b1dc       0x10 /var/folders/_f/jzb7lsz153bclt069nvlpp5r0000gn/T//ccGAufxj.ltrans5.ltrans.o
 .bss.ep1instate
                0x000000002000b1ec       0x10 /var/folders/_f/jzb7lsz153bclt069nvlpp5r0000gn/T//ccGAufxj.ltrans5.ltrans.o
 .bss.SDU1      0x000000002000b1fc      0x490 /var/folders/_f/jzb7lsz153bclt069nvlpp5r0000gn/T//ccGAufxj.ltrans8.ltrans.o
                0x000000002000b1fc                SDU1
 .bss.ch        0x000000002000b68c      0x888 /var/folders/_f/jzb7lsz153bclt069nvlpp5r0000gn/T//ccGAufxj.ltrans8.ltrans.o
                0x000000002000b68c                ch
 .bss.ch_memcore
                0x000000002000bf14        0x8 /var/folders/_f/jzb7lsz153bclt069nvlpp5r0000gn/T//ccGAufxj.ltrans8.ltrans.o
                0x000000002000bf14                ch_memcore
 .bss.__malloc_max_total_mem
                0x000000002000bf1c        0x4 /usr/local/Cellar/gcc-arm-none-eabi-49/20150925/bin/../lib/gcc/arm-none-eabi/4.9.3/../../../../arm-none-eabi/lib/armv7e-m/fpu/libg.a(lib_a-mallocr.o)
                0x000000002000bf1c                __malloc_max_total_mem
 .bss.__malloc_max_sbrked_mem
                0x000000002000bf20        0x4 /usr/local/Cellar/gcc-arm-none-eabi-49/20150925/bin/../lib/gcc/arm-none-eabi/4.9.3/../../../../arm-none-eabi/lib/armv7e-m/fpu/libg.a(lib_a-mallocr.o)
                0x000000002000bf20                __malloc_max_sbrked_mem
 .bss.__malloc_top_pad
                0x000000002000bf24        0x4 /usr/local/Cellar/gcc-arm-none-eabi-49/20150925/bin/../lib/gcc/arm-none-eabi/4.9.3/../../../../arm-none-eabi/lib/armv7e-m/fpu/libg.a(lib_a-mallocr.o)
                0x000000002000bf24                __malloc_top_pad
 .bss.__malloc_current_mallinfo
                0x000000002000bf28       0x28 /usr/local/Cellar/gcc-arm-none-eabi-49/20150925/bin/../lib/gcc/arm-none-eabi/4.9.3/../../../../arm-none-eabi/lib/armv7e-m/fpu/libg.a(lib_a-mallocr.o)
                0x000000002000bf28                __malloc_current_mallinfo
 *(COMMON)
                0x000000002000bf50                . = ALIGN (0x4)
                0x000000002000bf50                __bss_end__ = .
                0x000000002000bf50                PROVIDE (end, .)
                0x0000000020000000                __ram0_base__ = ORIGIN (ram0)
                0x0000000000020000                __ram0_size__ = 0x20000
                0x0000000020020000                __ram0_end__ = (__ram0_base__ + __ram0_size__)
                0x0000000020000000                __ram1_base__ = ORIGIN (ram1)
                0x000000000001c000                __ram1_size__ = 0x1c000
                0x000000002001c000                __ram1_end__ = (__ram1_base__ + __ram1_size__)
                0x000000002001c000                __ram2_base__ = ORIGIN (ram2)
                0x0000000000004000                __ram2_size__ = 0x4000
                0x0000000020020000                __ram2_end__ = (__ram2_base__ + __ram2_size__)
                0x0000000000000000                __ram3_base__ = ORIGIN (ram3)
                0x0000000000000000                __ram3_size__ = 0x0
                0x0000000000000000                __ram3_end__ = (__ram3_base__ + __ram3_size__)
                0x0000000010000000                __ram4_base__ = ORIGIN (ram4)
                0x0000000000010000                __ram4_size__ = 0x10000
                0x0000000010010000                __ram4_end__ = (__ram4_base__ + __ram4_size__)
                0x0000000040024000                __ram5_base__ = ORIGIN (ram5)
                0x0000000000001000                __ram5_size__ = 0x1000
                0x0000000040025000                __ram5_end__ = (__ram5_base__ + __ram5_size__)
                0x0000000000000000                __ram6_base__ = ORIGIN (ram6)
                0x0000000000000000                __ram6_size__ = 0x0
                0x0000000000000000                __ram6_end__ = (__ram6_base__ + __ram6_size__)
                0x0000000000000000                __ram7_base__ = ORIGIN (ram7)
                0x0000000000000000                __ram7_size__ = 0x0
                0x0000000000000000                __ram7_end__ = (__ram7_base__ + __ram7_size__)
                0x0000000008000000                __flash0_base__ = ORIGIN (flash0)
                0x0000000000100000                __flash0_size__ = 0x100000
                0x0000000008100000                __flash0_end__ = (__flash0_base__ + __flash0_size__)
                0x0000000000000000                __flash1_base__ = ORIGIN (flash1)
                0x0000000000000000                __flash1_size__ = 0x0
                0x0000000000000000                __flash1_end__ = (__flash1_base__ + __flash1_size__)
                0x0000000000000000                __flash2_base__ = ORIGIN (flash2)
                0x0000000000000000                __flash2_size__ = 0x0
                0x0000000000000000                __flash2_end__ = (__flash2_base__ + __flash2_size__)
                0x0000000000000000                __flash3_base__ = ORIGIN (flash3)
                0x0000000000000000                __flash3_size__ = 0x0
                0x0000000000000000                __flash3_end__ = (__flash3_base__ + __flash3_size__)
                0x0000000000000000                __flash4_base__ = ORIGIN (flash4)
                0x0000000000000000                __flash4_size__ = 0x0
                0x0000000000000000                __flash4_end__ = (__flash4_base__ + __flash4_size__)
                0x0000000000000000                __flash5_base__ = ORIGIN (flash5)
                0x0000000000000000                __flash5_size__ = 0x0
                0x0000000000000000                __flash5_end__ = (__flash5_base__ + __flash5_size__)
                0x0000000000000000                __flash6_base__ = ORIGIN (flash6)
                0x0000000000000000                __flash6_size__ = 0x0
                0x0000000000000000                __flash6_end__ = (__flash6_base__ + __flash6_size__)
                0x0000000000000000                __flash7_base__ = ORIGIN (flash7)
                0x0000000000000000                __flash7_size__ = 0x0
                0x0000000000000000                __flash7_end__ = (__flash7_base__ + __flash7_size__)

.ram0_init      0x000000002000bf50        0x0 load address 0x000000000800dff4
                0x000000000800dff4                __ram0_init_text__ = LOADADDR (.ram0_init)
                0x000000002000bf50                __ram0_init__ = .
 *(.ram0_init)
 *(.ram0_init.*)
                0x000000002000bf50                . = ALIGN (0x4)

.ram0           0x000000002000bf50        0x0 load address 0x000000000800dff4
                0x000000002000bf50                __ram0_clear__ = .
 *(.ram0_clear)
 *(.ram0_clear.*)
                0x000000002000bf50                . = ALIGN (0x4)
                0x000000002000bf50                __ram0_noinit__ = .
 *(.ram0)
 *(.ram0.*)
                0x000000002000bf50                . = ALIGN (0x4)
                0x000000002000bf50                __ram0_free__ = .

.ram1_init      0x0000000020000000        0x0 load address 0x000000000800dff4
                0x000000000800dff4                __ram1_init_text__ = LOADADDR (.ram1_init)
                0x0000000020000000                __ram1_init__ = .
 *(.ram1_init)
 *(.ram1_init.*)
                0x0000000020000000                . = ALIGN (0x4)

.ram1           0x0000000020000000        0x0 load address 0x000000000800dff4
                0x0000000020000000                __ram1_clear__ = .
 *(.ram1_clear)
 *(.ram1_clear.*)
                0x0000000020000000                . = ALIGN (0x4)
                0x0000000020000000                __ram1_noinit__ = .
 *(.ram1)
 *(.ram1.*)
                0x0000000020000000                . = ALIGN (0x4)
                0x0000000020000000                __ram1_free__ = .

.ram2_init      0x000000002001c000        0x0 load address 0x000000000800dff4
                0x000000000800dff4                __ram2_init_text__ = LOADADDR (.ram2_init)
                0x000000002001c000                __ram2_init__ = .
 *(.ram2_init)
 *(.ram2_init.*)
                0x000000002001c000                . = ALIGN (0x4)

.ram2           0x000000002001c000        0x0 load address 0x000000000800dff4
                0x000000002001c000                __ram2_clear__ = .
 *(.ram2_clear)
 *(.ram2_clear.*)
                0x000000002001c000                . = ALIGN (0x4)
                0x000000002001c000                __ram2_noinit__ = .
 *(.ram2)
 *(.ram2.*)
                0x000000002001c000                . = ALIGN (0x4)
                0x000000002001c000                __ram2_free__ = .

.ram3_init      0x0000000000000000        0x0 load address 0x000000000800dff4
                0x000000000800dff4                __ram3_init_text__ = LOADADDR (.ram3_init)
                0x0000000000000000                __ram3_init__ = .
 *(.ram3_init)
 *(.ram3_init.*)
                0x0000000000000000                . = ALIGN (0x4)

.ram3           0x0000000000000000        0x0 load address 0x000000000800dff4
                0x0000000000000000                __ram3_clear__ = .
 *(.ram3_clear)
 *(.ram3_clear.*)
                0x0000000000000000                . = ALIGN (0x4)
                0x0000000000000000                __ram3_noinit__ = .
 *(.ram3)
 *(.ram3.*)
                0x0000000000000000                . = ALIGN (0x4)
                0x0000000000000000                __ram3_free__ = .

.ram4_init      0x0000000010000000        0x0 load address 0x000000000800dff4
                0x000000000800dff4                __ram4_init_text__ = LOADADDR (.ram4_init)
                0x0000000010000000                __ram4_init__ = .
 *(.ram4_init)
 *(.ram4_init.*)
                0x0000000010000000                . = ALIGN (0x4)

.ram4           0x0000000010000000        0x0 load address 0x000000000800dff4
                0x0000000010000000                __ram4_clear__ = .
 *(.ram4_clear)
 *(.ram4_clear.*)
                0x0000000010000000                . = ALIGN (0x4)
                0x0000000010000000                __ram4_noinit__ = .
 *(.ram4)
 *(.ram4.*)
                0x0000000010000000                . = ALIGN (0x4)
                0x0000000010000000                __ram4_free__ = .

.ram5_init      0x0000000040024000        0x0 load address 0x000000000800dff4
                0x000000000800dff4                __ram5_init_text__ = LOADADDR (.ram5_init)
                0x0000000040024000                __ram5_init__ = .
 *(.ram5_init)
 *(.ram5_init.*)
                0x0000000040024000                . = ALIGN (0x4)

.ram5           0x0000000040024000        0x0 load address 0x000000000800dff4
                0x0000000040024000                __ram5_clear__ = .
 *(.ram5_clear)
 *(.ram5_clear.*)
                0x0000000040024000                . = ALIGN (0x4)
                0x0000000040024000                __ram5_noinit__ = .
 *(.ram5)
 *(.ram5.*)
                0x0000000040024000                . = ALIGN (0x4)
                0x0000000040024000                __ram5_free__ = .

.ram6_init      0x0000000000000000        0x0 load address 0x000000000800dff4
                0x000000000800dff4                __ram6_init_text__ = LOADADDR (.ram6_init)
                0x0000000000000000                __ram6_init__ = .
 *(.ram6_init)
 *(.ram6_init.*)
                0x0000000000000000                . = ALIGN (0x4)

.ram6           0x0000000000000000        0x0 load address 0x000000000800dff4
                0x0000000000000000                __ram6_clear__ = .
 *(.ram6_clear)
 *(.ram6_clear.*)
                0x0000000000000000                . = ALIGN (0x4)
                0x0000000000000000                __ram6_noinit__ = .
 *(.ram6)
 *(.ram6.*)
                0x0000000000000000                . = ALIGN (0x4)
                0x0000000000000000                __ram6_free__ = .

.ram7_init      0x0000000000000000        0x0 load address 0x000000000800dff4
                0x000000000800dff4                __ram7_init_text__ = LOADADDR (.ram7_init)
                0x0000000000000000                __ram7_init__ = .
 *(.ram7_init)
 *(.ram7_init.*)
                0x0000000000000000                . = ALIGN (0x4)

.ram7           0x0000000000000000        0x0 load address 0x000000000800dff4
                0x0000000000000000                __ram7_clear__ = .
 *(.ram7_clear)
 *(.ram7_clear.*)
                0x0000000000000000                . = ALIGN (0x4)
                0x0000000000000000                __ram7_noinit__ = .
 *(.ram7)
 *(.ram7.*)
                0x0000000000000000                . = ALIGN (0x4)
                0x0000000000000000                __ram7_free__ = .

.flash0         0x000000000800dff4        0x0
                0x000000000800dff4                __flash0_init__ = .
 *(.flash0_init)
 *(.flash0_init.*)
                0x000000000800dff4                __flash0_free__ = .

.flash1         0x0000000000000000        0x0
                0x0000000000000000                __flash1_init__ = .
 *(.flash1_init)
 *(.flash1_init.*)
                0x0000000000000000                __flash1_free__ = .

.flash2         0x0000000000000000        0x0
                0x0000000000000000                __flash2_init__ = .
 *(.flash2_init)
 *(.flash2_init.*)
                0x0000000000000000                __flash2_free__ = .

.flash3         0x0000000000000000        0x0
                0x0000000000000000                __flash3_init__ = .
 *(.flash3_init)
 *(.flash3_init.*)
                0x0000000000000000                __flash3_free__ = .

.flash4         0x0000000000000000        0x0
                0x0000000000000000                __flash4_init__ = .
 *(.flash4_init)
 *(.flash4_init.*)
                0x0000000000000000                __flash4_free__ = .

.flash5         0x0000000000000000        0x0
                0x0000000000000000                __flash5_init__ = .
 *(.flash5_init)
 *(.flash5_init.*)
                0x0000000000000000                __flash5_free__ = .

.flash6         0x0000000000000000        0x0
                0x0000000000000000                __flash6_init__ = .
 *(.flash6_init)
 *(.flash6_init.*)
                0x0000000000000000                __flash6_free__ = .

.flash7         0x0000000000000000        0x0
                0x0000000000000000                __flash7_init__ = .
 *(.flash7_init)
 *(.flash7_init.*)
                0x0000000000000000                __flash7_free__ = .

.heap           0x000000002000bf50    0x140b0
                0x000000002000bf50                . = ALIGN (0x8)
                0x000000002000bf50                __heap_base__ = .
                0x0000000020020000                . = (ORIGIN (HEAP_RAM) + 0x20000)
 *fill*         0x000000002000bf50    0x140b0 
                0x0000000020020000                __heap_end__ = .
                0x0000000000000400                __process_stack_size__ = 0x400
                0x0000000000000400                __main_stack_size__ = 0x400
START GROUP
LOAD /usr/local/Cellar/gcc-arm-none-eabi-49/20150925/bin/../lib/gcc/arm-none-eabi/4.9.3/armv7e-m/fpu/libgcc.a
LOAD /usr/local/Cellar/gcc-arm-none-eabi-49/20150925/bin/../lib/gcc/arm-none-eabi/4.9.3/../../../../arm-none-eabi/lib/armv7e-m/fpu/libg.a
LOAD /usr/local/Cellar/gcc-arm-none-eabi-49/20150925/bin/../lib/gcc/arm-none-eabi/4.9.3/../../../../arm-none-eabi/lib/armv7e-m/fpu/libc.a
END GROUP
OUTPUT(build/TEST.elf elf32-littlearm)

.ARM.attributes
                0x0000000000000000       0x35
 .ARM.attributes
                0x0000000000000000       0x25 ./build/obj/crt0_v7m.o
 .ARM.attributes
                0x0000000000000025       0x25 ./build/obj/vectors.o
 .ARM.attributes
                0x000000000000004a       0x25 ./build/obj/chcoreasm_v7m.o
 .ARM.attributes
                0x000000000000006f       0x37 /var/folders/_f/jzb7lsz153bclt069nvlpp5r0000gn/T//ccGAufxj.ltrans0.ltrans.o
 .ARM.attributes
                0x00000000000000a6       0x37 /var/folders/_f/jzb7lsz153bclt069nvlpp5r0000gn/T//ccGAufxj.ltrans1.ltrans.o
 .ARM.attributes
                0x00000000000000dd       0x37 /var/folders/_f/jzb7lsz153bclt069nvlpp5r0000gn/T//ccGAufxj.ltrans2.ltrans.o
 .ARM.attributes
                0x0000000000000114       0x37 /var/folders/_f/jzb7lsz153bclt069nvlpp5r0000gn/T//ccGAufxj.ltrans3.ltrans.o
 .ARM.attributes
                0x000000000000014b       0x37 /var/folders/_f/jzb7lsz153bclt069nvlpp5r0000gn/T//ccGAufxj.ltrans4.ltrans.o
 .ARM.attributes
                0x0000000000000182       0x37 /var/folders/_f/jzb7lsz153bclt069nvlpp5r0000gn/T//ccGAufxj.ltrans5.ltrans.o
 .ARM.attributes
                0x00000000000001b9       0x37 /var/folders/_f/jzb7lsz153bclt069nvlpp5r0000gn/T//ccGAufxj.ltrans6.ltrans.o
 .ARM.attributes
                0x00000000000001f0       0x37 /var/folders/_f/jzb7lsz153bclt069nvlpp5r0000gn/T//ccGAufxj.ltrans7.ltrans.o
 .ARM.attributes
                0x0000000000000227       0x37 /var/folders/_f/jzb7lsz153bclt069nvlpp5r0000gn/T//ccGAufxj.ltrans8.ltrans.o
 .ARM.attributes
                0x000000000000025e       0x37 /var/folders/_f/jzb7lsz153bclt069nvlpp5r0000gn/T//ccGAufxj.ltrans9.ltrans.o
 .ARM.attributes
                0x0000000000000295       0x20 /usr/local/Cellar/gcc-arm-none-eabi-49/20150925/bin/../lib/gcc/arm-none-eabi/4.9.3/../../../../arm-none-eabi/lib/armv7e-m/fpu/libg.a(lib_a-memcpy.o)
 .ARM.attributes
                0x00000000000002b5       0x34 /usr/local/Cellar/gcc-arm-none-eabi-49/20150925/bin/../lib/gcc/arm-none-eabi/4.9.3/../../../../arm-none-eabi/lib/armv7e-m/fpu/libg.a(lib_a-memset.o)
 .ARM.attributes
                0x00000000000002e9       0x34 /usr/local/Cellar/gcc-arm-none-eabi-49/20150925/bin/../lib/gcc/arm-none-eabi/4.9.3/../../../../arm-none-eabi/lib/armv7e-m/fpu/libg.a(lib_a-vsnprintf.o)
 .ARM.attributes
                0x000000000000031d       0x34 /usr/local/Cellar/gcc-arm-none-eabi-49/20150925/bin/../lib/gcc/arm-none-eabi/4.9.3/../../../../arm-none-eabi/lib/armv7e-m/fpu/libg.a(lib_a-impure.o)
 .ARM.attributes
                0x0000000000000351       0x34 /usr/local/Cellar/gcc-arm-none-eabi-49/20150925/bin/../lib/gcc/arm-none-eabi/4.9.3/../../../../arm-none-eabi/lib/armv7e-m/fpu/libg.a(lib_a-svfprintf.o)
 .ARM.attributes
                0x0000000000000385       0x34 /usr/local/Cellar/gcc-arm-none-eabi-49/20150925/bin/../lib/gcc/arm-none-eabi/4.9.3/../../../../arm-none-eabi/lib/armv7e-m/fpu/libg.a(lib_a-dtoa.o)
 .ARM.attributes
                0x00000000000003b9       0x34 /usr/local/Cellar/gcc-arm-none-eabi-49/20150925/bin/../lib/gcc/arm-none-eabi/4.9.3/../../../../arm-none-eabi/lib/armv7e-m/fpu/libg.a(lib_a-locale.o)
 .ARM.attributes
                0x00000000000003ed       0x34 /usr/local/Cellar/gcc-arm-none-eabi-49/20150925/bin/../lib/gcc/arm-none-eabi/4.9.3/../../../../arm-none-eabi/lib/armv7e-m/fpu/libg.a(lib_a-mallocr.o)
 .ARM.attributes
                0x0000000000000421       0x34 /usr/local/Cellar/gcc-arm-none-eabi-49/20150925/bin/../lib/gcc/arm-none-eabi/4.9.3/../../../../arm-none-eabi/lib/armv7e-m/fpu/libg.a(lib_a-memchr.o)
 .ARM.attributes
                0x0000000000000455       0x34 /usr/local/Cellar/gcc-arm-none-eabi-49/20150925/bin/../lib/gcc/arm-none-eabi/4.9.3/../../../../arm-none-eabi/lib/armv7e-m/fpu/libg.a(lib_a-mlock.o)
 .ARM.attributes
                0x0000000000000489       0x34 /usr/local/Cellar/gcc-arm-none-eabi-49/20150925/bin/../lib/gcc/arm-none-eabi/4.9.3/../../../../arm-none-eabi/lib/armv7e-m/fpu/libg.a(lib_a-mprec.o)
 .ARM.attributes
                0x00000000000004bd       0x34 /usr/local/Cellar/gcc-arm-none-eabi-49/20150925/bin/../lib/gcc/arm-none-eabi/4.9.3/../../../../arm-none-eabi/lib/armv7e-m/fpu/libg.a(lib_a-s_fpclassify.o)
 .ARM.attributes
                0x00000000000004f1       0x34 /usr/local/Cellar/gcc-arm-none-eabi-49/20150925/bin/../lib/gcc/arm-none-eabi/4.9.3/../../../../arm-none-eabi/lib/armv7e-m/fpu/libg.a(lib_a-strlen.o)
 .ARM.attributes
                0x0000000000000525       0x34 /usr/local/Cellar/gcc-arm-none-eabi-49/20150925/bin/../lib/gcc/arm-none-eabi/4.9.3/../../../../arm-none-eabi/lib/armv7e-m/fpu/libg.a(lib_a-svfiprintf.o)
 .ARM.attributes
                0x0000000000000559       0x34 /usr/local/Cellar/gcc-arm-none-eabi-49/20150925/bin/../lib/gcc/arm-none-eabi/4.9.3/../../../../arm-none-eabi/lib/armv7e-m/fpu/libg.a(lib_a-callocr.o)
 .ARM.attributes
                0x000000000000058d       0x34 /usr/local/Cellar/gcc-arm-none-eabi-49/20150925/bin/../lib/gcc/arm-none-eabi/4.9.3/../../../../arm-none-eabi/lib/armv7e-m/fpu/libg.a(lib_a-freer.o)
 .ARM.attributes
                0x00000000000005c1       0x34 /usr/local/Cellar/gcc-arm-none-eabi-49/20150925/bin/../lib/gcc/arm-none-eabi/4.9.3/../../../../arm-none-eabi/lib/armv7e-m/fpu/libg.a(lib_a-memmove.o)
 .ARM.attributes
                0x00000000000005f5       0x34 /usr/local/Cellar/gcc-arm-none-eabi-49/20150925/bin/../lib/gcc/arm-none-eabi/4.9.3/../../../../arm-none-eabi/lib/armv7e-m/fpu/libg.a(lib_a-reallocr.o)
 .ARM.attributes
                0x0000000000000629       0x22 /usr/local/Cellar/gcc-arm-none-eabi-49/20150925/bin/../lib/gcc/arm-none-eabi/4.9.3/armv7e-m/fpu/libgcc.a(_arm_addsubdf3.o)
 .ARM.attributes
                0x000000000000064b       0x22 /usr/local/Cellar/gcc-arm-none-eabi-49/20150925/bin/../lib/gcc/arm-none-eabi/4.9.3/armv7e-m/fpu/libgcc.a(_arm_muldivdf3.o)
 .ARM.attributes
                0x000000000000066d       0x22 /usr/local/Cellar/gcc-arm-none-eabi-49/20150925/bin/../lib/gcc/arm-none-eabi/4.9.3/armv7e-m/fpu/libgcc.a(_arm_cmpdf2.o)
 .ARM.attributes
                0x000000000000068f       0x22 /usr/local/Cellar/gcc-arm-none-eabi-49/20150925/bin/../lib/gcc/arm-none-eabi/4.9.3/armv7e-m/fpu/libgcc.a(_arm_fixdfsi.o)
 .ARM.attributes
                0x00000000000006b1       0x22 /usr/local/Cellar/gcc-arm-none-eabi-49/20150925/bin/../lib/gcc/arm-none-eabi/4.9.3/armv7e-m/fpu/libgcc.a(_aeabi_uldivmod.o)
 .ARM.attributes
                0x00000000000006d3       0x34 /usr/local/Cellar/gcc-arm-none-eabi-49/20150925/bin/../lib/gcc/arm-none-eabi/4.9.3/armv7e-m/fpu/libgcc.a(bpabi.o)
 .ARM.attributes
                0x0000000000000707       0x22 /usr/local/Cellar/gcc-arm-none-eabi-49/20150925/bin/../lib/gcc/arm-none-eabi/4.9.3/armv7e-m/fpu/libgcc.a(_dvmd_tls.o)
 .ARM.attributes
                0x0000000000000729       0x34 /usr/local/Cellar/gcc-arm-none-eabi-49/20150925/bin/../lib/gcc/arm-none-eabi/4.9.3/armv7e-m/fpu/libgcc.a(_divdi3.o)
 .ARM.attributes
                0x000000000000075d       0x34 /usr/local/Cellar/gcc-arm-none-eabi-49/20150925/bin/../lib/gcc/arm-none-eabi/4.9.3/armv7e-m/fpu/libgcc.a(_udivdi3.o)

.comment        0x0000000000000000       0x70
 .comment       0x0000000000000000       0x70 /var/folders/_f/jzb7lsz153bclt069nvlpp5r0000gn/T//ccGAufxj.ltrans0.ltrans.o
                                         0x71 (size before relaxing)
 .comment       0x0000000000000000       0x71 /var/folders/_f/jzb7lsz153bclt069nvlpp5r0000gn/T//ccGAufxj.ltrans1.ltrans.o
 .comment       0x0000000000000000       0x71 /var/folders/_f/jzb7lsz153bclt069nvlpp5r0000gn/T//ccGAufxj.ltrans2.ltrans.o
 .comment       0x0000000000000000       0x71 /var/folders/_f/jzb7lsz153bclt069nvlpp5r0000gn/T//ccGAufxj.ltrans3.ltrans.o
 .comment       0x0000000000000000       0x71 /var/folders/_f/jzb7lsz153bclt069nvlpp5r0000gn/T//ccGAufxj.ltrans4.ltrans.o
 .comment       0x0000000000000000       0x71 /var/folders/_f/jzb7lsz153bclt069nvlpp5r0000gn/T//ccGAufxj.ltrans5.ltrans.o
 .comment       0x0000000000000000       0x71 /var/folders/_f/jzb7lsz153bclt069nvlpp5r0000gn/T//ccGAufxj.ltrans6.ltrans.o
 .comment       0x0000000000000000       0x71 /var/folders/_f/jzb7lsz153bclt069nvlpp5r0000gn/T//ccGAufxj.ltrans7.ltrans.o
 .comment       0x0000000000000000       0x71 /var/folders/_f/jzb7lsz153bclt069nvlpp5r0000gn/T//ccGAufxj.ltrans8.ltrans.o
 .comment       0x0000000000000000       0x71 /var/folders/_f/jzb7lsz153bclt069nvlpp5r0000gn/T//ccGAufxj.ltrans9.ltrans.o

.debug_line     0x0000000000000000     0x76ce
 .debug_line    0x0000000000000000       0xe9 ./build/obj/crt0_v7m.o
 .debug_line    0x00000000000000e9       0x81 ./build/obj/vectors.o
 .debug_line    0x000000000000016a       0x9d ./build/obj/chcoreasm_v7m.o
 .debug_line    0x0000000000000207     0x143d /var/folders/_f/jzb7lsz153bclt069nvlpp5r0000gn/T//ccGAufxj.ltrans0.ltrans.o
 .debug_line    0x0000000000001644      0xedf /var/folders/_f/jzb7lsz153bclt069nvlpp5r0000gn/T//ccGAufxj.ltrans1.ltrans.o
 .debug_line    0x0000000000002523      0xa3c /var/folders/_f/jzb7lsz153bclt069nvlpp5r0000gn/T//ccGAufxj.ltrans2.ltrans.o
 .debug_line    0x0000000000002f5f      0x6a1 /var/folders/_f/jzb7lsz153bclt069nvlpp5r0000gn/T//ccGAufxj.ltrans3.ltrans.o
 .debug_line    0x0000000000003600      0xbba /var/folders/_f/jzb7lsz153bclt069nvlpp5r0000gn/T//ccGAufxj.ltrans4.ltrans.o
 .debug_line    0x00000000000041ba      0xf55 /var/folders/_f/jzb7lsz153bclt069nvlpp5r0000gn/T//ccGAufxj.ltrans5.ltrans.o
 .debug_line    0x000000000000510f      0x930 /var/folders/_f/jzb7lsz153bclt069nvlpp5r0000gn/T//ccGAufxj.ltrans6.ltrans.o
 .debug_line    0x0000000000005a3f      0xb08 /var/folders/_f/jzb7lsz153bclt069nvlpp5r0000gn/T//ccGAufxj.ltrans7.ltrans.o
 .debug_line    0x0000000000006547      0xb42 /var/folders/_f/jzb7lsz153bclt069nvlpp5r0000gn/T//ccGAufxj.ltrans8.ltrans.o
 .debug_line    0x0000000000007089      0x645 /var/folders/_f/jzb7lsz153bclt069nvlpp5r0000gn/T//ccGAufxj.ltrans9.ltrans.o

.debug_info     0x0000000000000000    0x1fdc3
 .debug_info    0x0000000000000000       0xbb ./build/obj/crt0_v7m.o
 .debug_info    0x00000000000000bb       0xba ./build/obj/vectors.o
 .debug_info    0x0000000000000175       0xbe ./build/obj/chcoreasm_v7m.o
 .debug_info    0x0000000000000233     0x5179 /var/folders/_f/jzb7lsz153bclt069nvlpp5r0000gn/T//ccGAufxj.ltrans0.ltrans.o
 .debug_info    0x00000000000053ac     0x37ef /var/folders/_f/jzb7lsz153bclt069nvlpp5r0000gn/T//ccGAufxj.ltrans1.ltrans.o
 .debug_info    0x0000000000008b9b     0x2936 /var/folders/_f/jzb7lsz153bclt069nvlpp5r0000gn/T//ccGAufxj.ltrans2.ltrans.o
 .debug_info    0x000000000000b4d1     0x2b01 /var/folders/_f/jzb7lsz153bclt069nvlpp5r0000gn/T//ccGAufxj.ltrans3.ltrans.o
 .debug_info    0x000000000000dfd2     0x288e /var/folders/_f/jzb7lsz153bclt069nvlpp5r0000gn/T//ccGAufxj.ltrans4.ltrans.o
 .debug_info    0x0000000000010860     0x4784 /var/folders/_f/jzb7lsz153bclt069nvlpp5r0000gn/T//ccGAufxj.ltrans5.ltrans.o
 .debug_info    0x0000000000014fe4     0x2652 /var/folders/_f/jzb7lsz153bclt069nvlpp5r0000gn/T//ccGAufxj.ltrans6.ltrans.o
 .debug_info    0x0000000000017636     0x3326 /var/folders/_f/jzb7lsz153bclt069nvlpp5r0000gn/T//ccGAufxj.ltrans7.ltrans.o
 .debug_info    0x000000000001a95c     0x3e95 /var/folders/_f/jzb7lsz153bclt069nvlpp5r0000gn/T//ccGAufxj.ltrans8.ltrans.o
 .debug_info    0x000000000001e7f1     0x15d2 /var/folders/_f/jzb7lsz153bclt069nvlpp5r0000gn/T//ccGAufxj.ltrans9.ltrans.o

.debug_abbrev   0x0000000000000000     0x3536
 .debug_abbrev  0x0000000000000000       0x14 ./build/obj/crt0_v7m.o
 .debug_abbrev  0x0000000000000014       0x14 ./build/obj/vectors.o
 .debug_abbrev  0x0000000000000028       0x14 ./build/obj/chcoreasm_v7m.o
 .debug_abbrev  0x000000000000003c      0x53e /var/folders/_f/jzb7lsz153bclt069nvlpp5r0000gn/T//ccGAufxj.ltrans0.ltrans.o
 .debug_abbrev  0x000000000000057a      0x631 /var/folders/_f/jzb7lsz153bclt069nvlpp5r0000gn/T//ccGAufxj.ltrans1.ltrans.o
 .debug_abbrev  0x0000000000000bab      0x39e /var/folders/_f/jzb7lsz153bclt069nvlpp5r0000gn/T//ccGAufxj.ltrans2.ltrans.o
 .debug_abbrev  0x0000000000000f49      0x412 /var/folders/_f/jzb7lsz153bclt069nvlpp5r0000gn/T//ccGAufxj.ltrans3.ltrans.o
 .debug_abbrev  0x000000000000135b      0x588 /var/folders/_f/jzb7lsz153bclt069nvlpp5r0000gn/T//ccGAufxj.ltrans4.ltrans.o
 .debug_abbrev  0x00000000000018e3      0x6db /var/folders/_f/jzb7lsz153bclt069nvlpp5r0000gn/T//ccGAufxj.ltrans5.ltrans.o
 .debug_abbrev  0x0000000000001fbe      0x456 /var/folders/_f/jzb7lsz153bclt069nvlpp5r0000gn/T//ccGAufxj.ltrans6.ltrans.o
 .debug_abbrev  0x0000000000002414      0x673 /var/folders/_f/jzb7lsz153bclt069nvlpp5r0000gn/T//ccGAufxj.ltrans7.ltrans.o
 .debug_abbrev  0x0000000000002a87      0x60e /var/folders/_f/jzb7lsz153bclt069nvlpp5r0000gn/T//ccGAufxj.ltrans8.ltrans.o
 .debug_abbrev  0x0000000000003095      0x4a1 /var/folders/_f/jzb7lsz153bclt069nvlpp5r0000gn/T//ccGAufxj.ltrans9.ltrans.o

.debug_aranges  0x0000000000000000      0x7f8
 .debug_aranges
                0x0000000000000000       0x20 ./build/obj/crt0_v7m.o
 .debug_aranges
                0x0000000000000020       0x20 ./build/obj/vectors.o
 .debug_aranges
                0x0000000000000040       0x20 ./build/obj/chcoreasm_v7m.o
 .debug_aranges
                0x0000000000000060       0x20 /var/folders/_f/jzb7lsz153bclt069nvlpp5r0000gn/T//ccGAufxj.ltrans0.ltrans.o
 .debug_aranges
                0x0000000000000080      0x100 /var/folders/_f/jzb7lsz153bclt069nvlpp5r0000gn/T//ccGAufxj.ltrans1.ltrans.o
 .debug_aranges
                0x0000000000000180      0x1a8 /var/folders/_f/jzb7lsz153bclt069nvlpp5r0000gn/T//ccGAufxj.ltrans2.ltrans.o
 .debug_aranges
                0x0000000000000328       0x38 /var/folders/_f/jzb7lsz153bclt069nvlpp5r0000gn/T//ccGAufxj.ltrans3.ltrans.o
 .debug_aranges
                0x0000000000000360       0xd8 /var/folders/_f/jzb7lsz153bclt069nvlpp5r0000gn/T//ccGAufxj.ltrans4.ltrans.o
 .debug_aranges
                0x0000000000000438       0x98 /var/folders/_f/jzb7lsz153bclt069nvlpp5r0000gn/T//ccGAufxj.ltrans5.ltrans.o
 .debug_aranges
                0x00000000000004d0       0xc8 /var/folders/_f/jzb7lsz153bclt069nvlpp5r0000gn/T//ccGAufxj.ltrans6.ltrans.o
 .debug_aranges
                0x0000000000000598      0x110 /var/folders/_f/jzb7lsz153bclt069nvlpp5r0000gn/T//ccGAufxj.ltrans7.ltrans.o
 .debug_aranges
                0x00000000000006a8       0xa8 /var/folders/_f/jzb7lsz153bclt069nvlpp5r0000gn/T//ccGAufxj.ltrans8.ltrans.o
 .debug_aranges
                0x0000000000000750       0xa8 /var/folders/_f/jzb7lsz153bclt069nvlpp5r0000gn/T//ccGAufxj.ltrans9.ltrans.o

.debug_loc      0x0000000000000000     0xe6bb
 .debug_loc     0x0000000000000000     0x12d2 /var/folders/_f/jzb7lsz153bclt069nvlpp5r0000gn/T//ccGAufxj.ltrans0.ltrans.o
 .debug_loc     0x00000000000012d2     0x145e /var/folders/_f/jzb7lsz153bclt069nvlpp5r0000gn/T//ccGAufxj.ltrans1.ltrans.o
 .debug_loc     0x0000000000002730     0x2b70 /var/folders/_f/jzb7lsz153bclt069nvlpp5r0000gn/T//ccGAufxj.ltrans2.ltrans.o
 .debug_loc     0x00000000000052a0     0x26ad /var/folders/_f/jzb7lsz153bclt069nvlpp5r0000gn/T//ccGAufxj.ltrans3.ltrans.o
 .debug_loc     0x000000000000794d      0xece /var/folders/_f/jzb7lsz153bclt069nvlpp5r0000gn/T//ccGAufxj.ltrans4.ltrans.o
 .debug_loc     0x000000000000881b     0x15e5 /var/folders/_f/jzb7lsz153bclt069nvlpp5r0000gn/T//ccGAufxj.ltrans5.ltrans.o
 .debug_loc     0x0000000000009e00      0xc5e /var/folders/_f/jzb7lsz153bclt069nvlpp5r0000gn/T//ccGAufxj.ltrans6.ltrans.o
 .debug_loc     0x000000000000aa5e     0x127e /var/folders/_f/jzb7lsz153bclt069nvlpp5r0000gn/T//ccGAufxj.ltrans7.ltrans.o
 .debug_loc     0x000000000000bcdc     0x1661 /var/folders/_f/jzb7lsz153bclt069nvlpp5r0000gn/T//ccGAufxj.ltrans8.ltrans.o
 .debug_loc     0x000000000000d33d     0x137e /var/folders/_f/jzb7lsz153bclt069nvlpp5r0000gn/T//ccGAufxj.ltrans9.ltrans.o

.debug_ranges   0x0000000000000000     0x3460
 .debug_ranges  0x0000000000000000      0xff0 /var/folders/_f/jzb7lsz153bclt069nvlpp5r0000gn/T//ccGAufxj.ltrans0.ltrans.o
 .debug_ranges  0x0000000000000ff0      0x7b8 /var/folders/_f/jzb7lsz153bclt069nvlpp5r0000gn/T//ccGAufxj.ltrans1.ltrans.o
 .debug_ranges  0x00000000000017a8      0x2f0 /var/folders/_f/jzb7lsz153bclt069nvlpp5r0000gn/T//ccGAufxj.ltrans2.ltrans.o
 .debug_ranges  0x0000000000001a98      0x388 /var/folders/_f/jzb7lsz153bclt069nvlpp5r0000gn/T//ccGAufxj.ltrans3.ltrans.o
 .debug_ranges  0x0000000000001e20      0x488 /var/folders/_f/jzb7lsz153bclt069nvlpp5r0000gn/T//ccGAufxj.ltrans4.ltrans.o
 .debug_ranges  0x00000000000022a8      0x680 /var/folders/_f/jzb7lsz153bclt069nvlpp5r0000gn/T//ccGAufxj.ltrans5.ltrans.o
 .debug_ranges  0x0000000000002928      0x1c8 /var/folders/_f/jzb7lsz153bclt069nvlpp5r0000gn/T//ccGAufxj.ltrans6.ltrans.o
 .debug_ranges  0x0000000000002af0      0x3d8 /var/folders/_f/jzb7lsz153bclt069nvlpp5r0000gn/T//ccGAufxj.ltrans7.ltrans.o
 .debug_ranges  0x0000000000002ec8      0x278 /var/folders/_f/jzb7lsz153bclt069nvlpp5r0000gn/T//ccGAufxj.ltrans8.ltrans.o
 .debug_ranges  0x0000000000003140      0x320 /var/folders/_f/jzb7lsz153bclt069nvlpp5r0000gn/T//ccGAufxj.ltrans9.ltrans.o

.debug_str      0x0000000000000000     0x4986
 .debug_str     0x0000000000000000     0x1e21 /var/folders/_f/jzb7lsz153bclt069nvlpp5r0000gn/T//ccGAufxj.ltrans0.ltrans.o
                                       0x207a (size before relaxing)
 .debug_str     0x0000000000001e21      0x79b /var/folders/_f/jzb7lsz153bclt069nvlpp5r0000gn/T//ccGAufxj.ltrans1.ltrans.o
                                       0x113c (size before relaxing)
 .debug_str     0x00000000000025bc      0x43c /var/folders/_f/jzb7lsz153bclt069nvlpp5r0000gn/T//ccGAufxj.ltrans2.ltrans.o
                                        0x9e2 (size before relaxing)
 .debug_str     0x00000000000029f8      0x684 /var/folders/_f/jzb7lsz153bclt069nvlpp5r0000gn/T//ccGAufxj.ltrans3.ltrans.o
                                        0xd5c (size before relaxing)
 .debug_str     0x000000000000307c      0x348 /var/folders/_f/jzb7lsz153bclt069nvlpp5r0000gn/T//ccGAufxj.ltrans4.ltrans.o
                                        0xf42 (size before relaxing)
 .debug_str     0x00000000000033c4      0x754 /var/folders/_f/jzb7lsz153bclt069nvlpp5r0000gn/T//ccGAufxj.ltrans5.ltrans.o
                                       0x1ec2 (size before relaxing)
 .debug_str     0x0000000000003b18      0x220 /var/folders/_f/jzb7lsz153bclt069nvlpp5r0000gn/T//ccGAufxj.ltrans6.ltrans.o
                                        0xc46 (size before relaxing)
 .debug_str     0x0000000000003d38      0x3d1 /var/folders/_f/jzb7lsz153bclt069nvlpp5r0000gn/T//ccGAufxj.ltrans7.ltrans.o
                                       0x131f (size before relaxing)
 .debug_str     0x0000000000004109      0x73e /var/folders/_f/jzb7lsz153bclt069nvlpp5r0000gn/T//ccGAufxj.ltrans8.ltrans.o
                                       0x1dad (size before relaxing)
 .debug_str     0x0000000000004847      0x13f /var/folders/_f/jzb7lsz153bclt069nvlpp5r0000gn/T//ccGAufxj.ltrans9.ltrans.o
                                        0x925 (size before relaxing)

.debug_frame    0x0000000000000000     0x23c8
 .debug_frame   0x0000000000000000       0x2c /var/folders/_f/jzb7lsz153bclt069nvlpp5r0000gn/T//ccGAufxj.ltrans0.ltrans.o
 .debug_frame   0x000000000000002c      0x354 /var/folders/_f/jzb7lsz153bclt069nvlpp5r0000gn/T//ccGAufxj.ltrans1.ltrans.o
 .debug_frame   0x0000000000000380      0x7cc /var/folders/_f/jzb7lsz153bclt069nvlpp5r0000gn/T//ccGAufxj.ltrans2.ltrans.o
 .debug_frame   0x0000000000000b4c       0xb4 /var/folders/_f/jzb7lsz153bclt069nvlpp5r0000gn/T//ccGAufxj.ltrans3.ltrans.o
 .debug_frame   0x0000000000000c00      0x304 /var/folders/_f/jzb7lsz153bclt069nvlpp5r0000gn/T//ccGAufxj.ltrans4.ltrans.o
 .debug_frame   0x0000000000000f04      0x220 /var/folders/_f/jzb7lsz153bclt069nvlpp5r0000gn/T//ccGAufxj.ltrans5.ltrans.o
 .debug_frame   0x0000000000001124      0x2ac /var/folders/_f/jzb7lsz153bclt069nvlpp5r0000gn/T//ccGAufxj.ltrans6.ltrans.o
 .debug_frame   0x00000000000013d0      0x328 /var/folders/_f/jzb7lsz153bclt069nvlpp5r0000gn/T//ccGAufxj.ltrans7.ltrans.o
 .debug_frame   0x00000000000016f8      0x21c /var/folders/_f/jzb7lsz153bclt069nvlpp5r0000gn/T//ccGAufxj.ltrans8.ltrans.o
 .debug_frame   0x0000000000001914      0x2bc /var/folders/_f/jzb7lsz153bclt069nvlpp5r0000gn/T//ccGAufxj.ltrans9.ltrans.o
 .debug_frame   0x0000000000001bd0       0x34 /usr/local/Cellar/gcc-arm-none-eabi-49/20150925/bin/../lib/gcc/arm-none-eabi/4.9.3/../../../../arm-none-eabi/lib/armv7e-m/fpu/libg.a(lib_a-memset.o)
 .debug_frame   0x0000000000001c04       0x60 /usr/local/Cellar/gcc-arm-none-eabi-49/20150925/bin/../lib/gcc/arm-none-eabi/4.9.3/../../../../arm-none-eabi/lib/armv7e-m/fpu/libg.a(lib_a-vsnprintf.o)
 .debug_frame   0x0000000000001c64       0x40 /usr/local/Cellar/gcc-arm-none-eabi-49/20150925/bin/../lib/gcc/arm-none-eabi/4.9.3/../../../../arm-none-eabi/lib/armv7e-m/fpu/libg.a(lib_a-svfprintf.o)
 .debug_frame   0x0000000000001ca4       0x88 /usr/local/Cellar/gcc-arm-none-eabi-49/20150925/bin/../lib/gcc/arm-none-eabi/4.9.3/../../../../arm-none-eabi/lib/armv7e-m/fpu/libg.a(lib_a-dtoa.o)
 .debug_frame   0x0000000000001d2c       0x9c /usr/local/Cellar/gcc-arm-none-eabi-49/20150925/bin/../lib/gcc/arm-none-eabi/4.9.3/../../../../arm-none-eabi/lib/armv7e-m/fpu/libg.a(lib_a-locale.o)
 .debug_frame   0x0000000000001dc8       0x58 /usr/local/Cellar/gcc-arm-none-eabi-49/20150925/bin/../lib/gcc/arm-none-eabi/4.9.3/../../../../arm-none-eabi/lib/armv7e-m/fpu/libg.a(lib_a-mallocr.o)
 .debug_frame   0x0000000000001e20       0x3c /usr/local/Cellar/gcc-arm-none-eabi-49/20150925/bin/../lib/gcc/arm-none-eabi/4.9.3/../../../../arm-none-eabi/lib/armv7e-m/fpu/libg.a(lib_a-memchr.o)
 .debug_frame   0x0000000000001e5c       0x30 /usr/local/Cellar/gcc-arm-none-eabi-49/20150925/bin/../lib/gcc/arm-none-eabi/4.9.3/../../../../arm-none-eabi/lib/armv7e-m/fpu/libg.a(lib_a-mlock.o)
 .debug_frame   0x0000000000001e8c      0x268 /usr/local/Cellar/gcc-arm-none-eabi-49/20150925/bin/../lib/gcc/arm-none-eabi/4.9.3/../../../../arm-none-eabi/lib/armv7e-m/fpu/libg.a(lib_a-mprec.o)
 .debug_frame   0x00000000000020f4       0x34 /usr/local/Cellar/gcc-arm-none-eabi-49/20150925/bin/../lib/gcc/arm-none-eabi/4.9.3/../../../../arm-none-eabi/lib/armv7e-m/fpu/libg.a(lib_a-s_fpclassify.o)
 .debug_frame   0x0000000000002128       0x20 /usr/local/Cellar/gcc-arm-none-eabi-49/20150925/bin/../lib/gcc/arm-none-eabi/4.9.3/../../../../arm-none-eabi/lib/armv7e-m/fpu/libg.a(lib_a-strlen.o)
 .debug_frame   0x0000000000002148       0x78 /usr/local/Cellar/gcc-arm-none-eabi-49/20150925/bin/../lib/gcc/arm-none-eabi/4.9.3/../../../../arm-none-eabi/lib/armv7e-m/fpu/libg.a(lib_a-svfiprintf.o)
 .debug_frame   0x00000000000021c0       0x28 /usr/local/Cellar/gcc-arm-none-eabi-49/20150925/bin/../lib/gcc/arm-none-eabi/4.9.3/../../../../arm-none-eabi/lib/armv7e-m/fpu/libg.a(lib_a-callocr.o)
 .debug_frame   0x00000000000021e8       0x74 /usr/local/Cellar/gcc-arm-none-eabi-49/20150925/bin/../lib/gcc/arm-none-eabi/4.9.3/../../../../arm-none-eabi/lib/armv7e-m/fpu/libg.a(lib_a-freer.o)
 .debug_frame   0x000000000000225c       0x30 /usr/local/Cellar/gcc-arm-none-eabi-49/20150925/bin/../lib/gcc/arm-none-eabi/4.9.3/../../../../arm-none-eabi/lib/armv7e-m/fpu/libg.a(lib_a-memmove.o)
 .debug_frame   0x000000000000228c       0x60 /usr/local/Cellar/gcc-arm-none-eabi-49/20150925/bin/../lib/gcc/arm-none-eabi/4.9.3/../../../../arm-none-eabi/lib/armv7e-m/fpu/libg.a(lib_a-reallocr.o)
 .debug_frame   0x00000000000022ec       0x28 /usr/local/Cellar/gcc-arm-none-eabi-49/20150925/bin/../lib/gcc/arm-none-eabi/4.9.3/armv7e-m/fpu/libgcc.a(_aeabi_uldivmod.o)
 .debug_frame   0x0000000000002314       0x50 /usr/local/Cellar/gcc-arm-none-eabi-49/20150925/bin/../lib/gcc/arm-none-eabi/4.9.3/armv7e-m/fpu/libgcc.a(bpabi.o)
 .debug_frame   0x0000000000002364       0x34 /usr/local/Cellar/gcc-arm-none-eabi-49/20150925/bin/../lib/gcc/arm-none-eabi/4.9.3/armv7e-m/fpu/libgcc.a(_divdi3.o)
 .debug_frame   0x0000000000002398       0x30 /usr/local/Cellar/gcc-arm-none-eabi-49/20150925/bin/../lib/gcc/arm-none-eabi/4.9.3/armv7e-m/fpu/libgcc.a(_udivdi3.o)

Cross Reference Table

Symbol                                            File
BusFault_Handler                                  ./build/obj/vectors.o
DACD1                                             ./build/obj/hal_dac_lld.o (symbol from plugin)
                                                  ./build/obj/VMC.o (symbol from plugin)
DebugMon_Handler                                  ./build/obj/vectors.o
HardFault_Handler                                 ./build/obj/vectors.o
MemManage_Handler                                 ./build/obj/vectors.o
NMI_Handler                                       ./build/obj/vectors.o
PendSV_Handler                                    ./build/obj/vectors.o
Reset_Handler                                     ./build/obj/vectors.o
SDU1                                              /var/folders/_f/jzb7lsz153bclt069nvlpp5r0000gn/T//ccGAufxj.ltrans8.ltrans.o
                                                  ./build/obj/usbcfg.o (symbol from plugin)
                                                  /var/folders/_f/jzb7lsz153bclt069nvlpp5r0000gn/T//ccGAufxj.ltrans5.ltrans.o
                                                  /var/folders/_f/jzb7lsz153bclt069nvlpp5r0000gn/T//ccGAufxj.ltrans0.ltrans.o
                                                  ./build/obj/svm_chibios_main.o (symbol from plugin)
SVC_Handler                                       /var/folders/_f/jzb7lsz153bclt069nvlpp5r0000gn/T//ccGAufxj.ltrans1.ltrans.o
                                                  ./build/obj/chcore_v7m.o (symbol from plugin)
                                                  ./build/obj/vectors.o
SysTick_Handler                                   ./build/obj/vectors.o
SystemCoreClock                                   ./build/obj/hal_lld.o (symbol from plugin)
USBD1                                             /var/folders/_f/jzb7lsz153bclt069nvlpp5r0000gn/T//ccGAufxj.ltrans0.ltrans.o
                                                  ./build/obj/hal_usb_lld.o (symbol from plugin)
                                                  /var/folders/_f/jzb7lsz153bclt069nvlpp5r0000gn/T//ccGAufxj.ltrans4.ltrans.o
                                                  ./build/obj/usbcfg.o (symbol from plugin)
USBD2                                             /var/folders/_f/jzb7lsz153bclt069nvlpp5r0000gn/T//ccGAufxj.ltrans0.ltrans.o
                                                  ./build/obj/hal_usb_lld.o (symbol from plugin)
                                                  /var/folders/_f/jzb7lsz153bclt069nvlpp5r0000gn/T//ccGAufxj.ltrans4.ltrans.o
UsageFault_Handler                                ./build/obj/vectors.o
Vector100                                         ./build/obj/vectors.o
Vector104                                         ./build/obj/vectors.o
Vector108                                         /var/folders/_f/jzb7lsz153bclt069nvlpp5r0000gn/T//ccGAufxj.ltrans5.ltrans.o
                                                  ./build/obj/sys_time.o (symbol from plugin)
                                                  ./build/obj/vectors.o
Vector10C                                         ./build/obj/vectors.o
Vector110                                         ./build/obj/vectors.o
Vector114                                         ./build/obj/vectors.o
Vector118                                         ./build/obj/vectors.o
Vector11C                                         ./build/obj/vectors.o
Vector120                                         /var/folders/_f/jzb7lsz153bclt069nvlpp5r0000gn/T//ccGAufxj.ltrans6.ltrans.o
                                                  ./build/obj/stm32_dma.o (symbol from plugin)
                                                  ./build/obj/vectors.o
Vector124                                         /var/folders/_f/jzb7lsz153bclt069nvlpp5r0000gn/T//ccGAufxj.ltrans6.ltrans.o
                                                  ./build/obj/stm32_dma.o (symbol from plugin)
                                                  ./build/obj/vectors.o
Vector128                                         /var/folders/_f/jzb7lsz153bclt069nvlpp5r0000gn/T//ccGAufxj.ltrans4.ltrans.o
                                                  ./build/obj/stm32_dma.o (symbol from plugin)
                                                  ./build/obj/vectors.o
Vector12C                                         /var/folders/_f/jzb7lsz153bclt069nvlpp5r0000gn/T//ccGAufxj.ltrans4.ltrans.o
                                                  ./build/obj/stm32_dma.o (symbol from plugin)
                                                  ./build/obj/vectors.o
Vector130                                         /var/folders/_f/jzb7lsz153bclt069nvlpp5r0000gn/T//ccGAufxj.ltrans4.ltrans.o
                                                  ./build/obj/stm32_dma.o (symbol from plugin)
                                                  ./build/obj/vectors.o
Vector134                                         ./build/obj/vectors.o
Vector138                                         ./build/obj/vectors.o
Vector13C                                         ./build/obj/vectors.o
Vector140                                         ./build/obj/vectors.o
Vector144                                         ./build/obj/vectors.o
Vector148                                         ./build/obj/vectors.o
Vector14C                                         /var/folders/_f/jzb7lsz153bclt069nvlpp5r0000gn/T//ccGAufxj.ltrans4.ltrans.o
                                                  ./build/obj/hal_usb_lld.o (symbol from plugin)
                                                  ./build/obj/vectors.o
Vector150                                         /var/folders/_f/jzb7lsz153bclt069nvlpp5r0000gn/T//ccGAufxj.ltrans4.ltrans.o
                                                  ./build/obj/stm32_dma.o (symbol from plugin)
                                                  ./build/obj/vectors.o
Vector154                                         /var/folders/_f/jzb7lsz153bclt069nvlpp5r0000gn/T//ccGAufxj.ltrans4.ltrans.o
                                                  ./build/obj/stm32_dma.o (symbol from plugin)
                                                  ./build/obj/vectors.o
Vector158                                         /var/folders/_f/jzb7lsz153bclt069nvlpp5r0000gn/T//ccGAufxj.ltrans4.ltrans.o
                                                  ./build/obj/stm32_dma.o (symbol from plugin)
                                                  ./build/obj/vectors.o
Vector15C                                         ./build/obj/vectors.o
Vector160                                         ./build/obj/vectors.o
Vector164                                         ./build/obj/vectors.o
Vector168                                         ./build/obj/vectors.o
Vector16C                                         ./build/obj/vectors.o
Vector170                                         ./build/obj/vectors.o
Vector174                                         /var/folders/_f/jzb7lsz153bclt069nvlpp5r0000gn/T//ccGAufxj.ltrans4.ltrans.o
                                                  ./build/obj/hal_usb_lld.o (symbol from plugin)
                                                  ./build/obj/vectors.o
Vector178                                         ./build/obj/vectors.o
Vector17C                                         ./build/obj/vectors.o
Vector180                                         ./build/obj/vectors.o
Vector184                                         ./build/obj/vectors.o
Vector188                                         ./build/obj/vectors.o
Vector18C                                         ./build/obj/vectors.o
Vector190                                         ./build/obj/vectors.o
Vector194                                         ./build/obj/vectors.o
Vector198                                         ./build/obj/vectors.o
Vector19C                                         ./build/obj/vectors.o
Vector1A0                                         ./build/obj/vectors.o
Vector1A4                                         ./build/obj/vectors.o
Vector1A8                                         ./build/obj/vectors.o
Vector1AC                                         ./build/obj/vectors.o
Vector1B0                                         ./build/obj/vectors.o
Vector1B4                                         ./build/obj/vectors.o
Vector1B8                                         ./build/obj/vectors.o
Vector1BC                                         ./build/obj/vectors.o
Vector1C                                          ./build/obj/vectors.o
Vector1C0                                         ./build/obj/vectors.o
Vector1C4                                         ./build/obj/vectors.o
Vector1C8                                         ./build/obj/vectors.o
Vector1CC                                         ./build/obj/vectors.o
Vector1D0                                         ./build/obj/vectors.o
Vector1D4                                         ./build/obj/vectors.o
Vector1D8                                         ./build/obj/vectors.o
Vector1DC                                         ./build/obj/vectors.o
Vector20                                          ./build/obj/vectors.o
Vector24                                          ./build/obj/vectors.o
Vector28                                          ./build/obj/vectors.o
Vector34                                          ./build/obj/vectors.o
Vector40                                          ./build/obj/vectors.o
Vector44                                          ./build/obj/vectors.o
Vector48                                          ./build/obj/vectors.o
Vector4C                                          ./build/obj/vectors.o
Vector50                                          ./build/obj/vectors.o
Vector54                                          ./build/obj/vectors.o
Vector58                                          /var/folders/_f/jzb7lsz153bclt069nvlpp5r0000gn/T//ccGAufxj.ltrans6.ltrans.o
                                                  ./build/obj/stm32_isr.o (symbol from plugin)
                                                  ./build/obj/vectors.o
Vector5C                                          /var/folders/_f/jzb7lsz153bclt069nvlpp5r0000gn/T//ccGAufxj.ltrans6.ltrans.o
                                                  ./build/obj/stm32_isr.o (symbol from plugin)
                                                  ./build/obj/vectors.o
Vector60                                          /var/folders/_f/jzb7lsz153bclt069nvlpp5r0000gn/T//ccGAufxj.ltrans6.ltrans.o
                                                  ./build/obj/stm32_isr.o (symbol from plugin)
                                                  ./build/obj/vectors.o
Vector64                                          /var/folders/_f/jzb7lsz153bclt069nvlpp5r0000gn/T//ccGAufxj.ltrans6.ltrans.o
                                                  ./build/obj/stm32_isr.o (symbol from plugin)
                                                  ./build/obj/vectors.o
Vector68                                          /var/folders/_f/jzb7lsz153bclt069nvlpp5r0000gn/T//ccGAufxj.ltrans6.ltrans.o
                                                  ./build/obj/stm32_isr.o (symbol from plugin)
                                                  ./build/obj/vectors.o
Vector6C                                          /var/folders/_f/jzb7lsz153bclt069nvlpp5r0000gn/T//ccGAufxj.ltrans6.ltrans.o
                                                  ./build/obj/stm32_dma.o (symbol from plugin)
                                                  ./build/obj/vectors.o
Vector70                                          /var/folders/_f/jzb7lsz153bclt069nvlpp5r0000gn/T//ccGAufxj.ltrans6.ltrans.o
                                                  ./build/obj/stm32_dma.o (symbol from plugin)
                                                  ./build/obj/vectors.o
Vector74                                          /var/folders/_f/jzb7lsz153bclt069nvlpp5r0000gn/T//ccGAufxj.ltrans6.ltrans.o
                                                  ./build/obj/stm32_dma.o (symbol from plugin)
                                                  ./build/obj/vectors.o
Vector78                                          /var/folders/_f/jzb7lsz153bclt069nvlpp5r0000gn/T//ccGAufxj.ltrans6.ltrans.o
                                                  ./build/obj/stm32_dma.o (symbol from plugin)
                                                  ./build/obj/vectors.o
Vector7C                                          /var/folders/_f/jzb7lsz153bclt069nvlpp5r0000gn/T//ccGAufxj.ltrans6.ltrans.o
                                                  ./build/obj/stm32_dma.o (symbol from plugin)
                                                  ./build/obj/vectors.o
Vector80                                          /var/folders/_f/jzb7lsz153bclt069nvlpp5r0000gn/T//ccGAufxj.ltrans6.ltrans.o
                                                  ./build/obj/stm32_dma.o (symbol from plugin)
                                                  ./build/obj/vectors.o
Vector84                                          /var/folders/_f/jzb7lsz153bclt069nvlpp5r0000gn/T//ccGAufxj.ltrans6.ltrans.o
                                                  ./build/obj/stm32_dma.o (symbol from plugin)
                                                  ./build/obj/vectors.o
Vector88                                          ./build/obj/vectors.o
Vector8C                                          ./build/obj/vectors.o
Vector90                                          ./build/obj/vectors.o
Vector94                                          ./build/obj/vectors.o
Vector98                                          ./build/obj/vectors.o
Vector9C                                          /var/folders/_f/jzb7lsz153bclt069nvlpp5r0000gn/T//ccGAufxj.ltrans6.ltrans.o
                                                  ./build/obj/stm32_isr.o (symbol from plugin)
                                                  ./build/obj/vectors.o
VectorA0                                          ./build/obj/vectors.o
VectorA4                                          ./build/obj/vectors.o
VectorA8                                          ./build/obj/vectors.o
VectorAC                                          ./build/obj/vectors.o
VectorB0                                          /var/folders/_f/jzb7lsz153bclt069nvlpp5r0000gn/T//ccGAufxj.ltrans4.ltrans.o
                                                  ./build/obj/hal_st_lld.o (symbol from plugin)
                                                  ./build/obj/vectors.o
VectorB4                                          ./build/obj/vectors.o
VectorB8                                          ./build/obj/vectors.o
VectorBC                                          ./build/obj/vectors.o
VectorC0                                          ./build/obj/vectors.o
VectorC4                                          ./build/obj/vectors.o
VectorC8                                          ./build/obj/vectors.o
VectorCC                                          ./build/obj/vectors.o
VectorD0                                          ./build/obj/vectors.o
VectorD4                                          ./build/obj/vectors.o
VectorD8                                          ./build/obj/vectors.o
VectorDC                                          ./build/obj/vectors.o
VectorE0                                          /var/folders/_f/jzb7lsz153bclt069nvlpp5r0000gn/T//ccGAufxj.ltrans6.ltrans.o
                                                  ./build/obj/stm32_isr.o (symbol from plugin)
                                                  ./build/obj/vectors.o
VectorE4                                          ./build/obj/vectors.o
VectorE8                                          ./build/obj/vectors.o
VectorEC                                          ./build/obj/vectors.o
VectorF0                                          ./build/obj/vectors.o
VectorF4                                          ./build/obj/vectors.o
VectorF8                                          ./build/obj/vectors.o
VectorFC                                          /var/folders/_f/jzb7lsz153bclt069nvlpp5r0000gn/T//ccGAufxj.ltrans6.ltrans.o
                                                  ./build/obj/stm32_dma.o (symbol from plugin)
                                                  ./build/obj/vectors.o
_Balloc                                           /usr/local/Cellar/gcc-arm-none-eabi-49/20150925/bin/../lib/gcc/arm-none-eabi/4.9.3/../../../../arm-none-eabi/lib/armv7e-m/fpu/libg.a(lib_a-mprec.o)
                                                  /usr/local/Cellar/gcc-arm-none-eabi-49/20150925/bin/../lib/gcc/arm-none-eabi/4.9.3/../../../../arm-none-eabi/lib/armv7e-m/fpu/libg.a(lib_a-dtoa.o)
_Bfree                                            /usr/local/Cellar/gcc-arm-none-eabi-49/20150925/bin/../lib/gcc/arm-none-eabi/4.9.3/../../../../arm-none-eabi/lib/armv7e-m/fpu/libg.a(lib_a-mprec.o)
                                                  /usr/local/Cellar/gcc-arm-none-eabi-49/20150925/bin/../lib/gcc/arm-none-eabi/4.9.3/../../../../arm-none-eabi/lib/armv7e-m/fpu/libg.a(lib_a-dtoa.o)
_PathLocale                                       /usr/local/Cellar/gcc-arm-none-eabi-49/20150925/bin/../lib/gcc/arm-none-eabi/4.9.3/../../../../arm-none-eabi/lib/armv7e-m/fpu/libg.a(lib_a-locale.o)
__adddf3                                          /usr/local/Cellar/gcc-arm-none-eabi-49/20150925/bin/../lib/gcc/arm-none-eabi/4.9.3/armv7e-m/fpu/libgcc.a(_arm_addsubdf3.o)
__aeabi_cdcmpeq                                   /usr/local/Cellar/gcc-arm-none-eabi-49/20150925/bin/../lib/gcc/arm-none-eabi/4.9.3/armv7e-m/fpu/libgcc.a(_arm_cmpdf2.o)
__aeabi_cdcmple                                   /usr/local/Cellar/gcc-arm-none-eabi-49/20150925/bin/../lib/gcc/arm-none-eabi/4.9.3/armv7e-m/fpu/libgcc.a(_arm_cmpdf2.o)
__aeabi_cdrcmple                                  /usr/local/Cellar/gcc-arm-none-eabi-49/20150925/bin/../lib/gcc/arm-none-eabi/4.9.3/armv7e-m/fpu/libgcc.a(_arm_cmpdf2.o)
__aeabi_d2iz                                      /usr/local/Cellar/gcc-arm-none-eabi-49/20150925/bin/../lib/gcc/arm-none-eabi/4.9.3/armv7e-m/fpu/libgcc.a(_arm_fixdfsi.o)
                                                  /usr/local/Cellar/gcc-arm-none-eabi-49/20150925/bin/../lib/gcc/arm-none-eabi/4.9.3/../../../../arm-none-eabi/lib/armv7e-m/fpu/libg.a(lib_a-dtoa.o)
__aeabi_dadd                                      /usr/local/Cellar/gcc-arm-none-eabi-49/20150925/bin/../lib/gcc/arm-none-eabi/4.9.3/armv7e-m/fpu/libgcc.a(_arm_addsubdf3.o)
                                                  /usr/local/Cellar/gcc-arm-none-eabi-49/20150925/bin/../lib/gcc/arm-none-eabi/4.9.3/../../../../arm-none-eabi/lib/armv7e-m/fpu/libg.a(lib_a-dtoa.o)
__aeabi_dcmpeq                                    /usr/local/Cellar/gcc-arm-none-eabi-49/20150925/bin/../lib/gcc/arm-none-eabi/4.9.3/armv7e-m/fpu/libgcc.a(_arm_cmpdf2.o)
                                                  /usr/local/Cellar/gcc-arm-none-eabi-49/20150925/bin/../lib/gcc/arm-none-eabi/4.9.3/../../../../arm-none-eabi/lib/armv7e-m/fpu/libg.a(lib_a-dtoa.o)
                                                  /usr/local/Cellar/gcc-arm-none-eabi-49/20150925/bin/../lib/gcc/arm-none-eabi/4.9.3/../../../../arm-none-eabi/lib/armv7e-m/fpu/libg.a(lib_a-svfprintf.o)
__aeabi_dcmpge                                    /usr/local/Cellar/gcc-arm-none-eabi-49/20150925/bin/../lib/gcc/arm-none-eabi/4.9.3/armv7e-m/fpu/libgcc.a(_arm_cmpdf2.o)
                                                  /usr/local/Cellar/gcc-arm-none-eabi-49/20150925/bin/../lib/gcc/arm-none-eabi/4.9.3/../../../../arm-none-eabi/lib/armv7e-m/fpu/libg.a(lib_a-dtoa.o)
__aeabi_dcmpgt                                    /usr/local/Cellar/gcc-arm-none-eabi-49/20150925/bin/../lib/gcc/arm-none-eabi/4.9.3/armv7e-m/fpu/libgcc.a(_arm_cmpdf2.o)
                                                  /usr/local/Cellar/gcc-arm-none-eabi-49/20150925/bin/../lib/gcc/arm-none-eabi/4.9.3/../../../../arm-none-eabi/lib/armv7e-m/fpu/libg.a(lib_a-dtoa.o)
__aeabi_dcmple                                    /usr/local/Cellar/gcc-arm-none-eabi-49/20150925/bin/../lib/gcc/arm-none-eabi/4.9.3/armv7e-m/fpu/libgcc.a(_arm_cmpdf2.o)
__aeabi_dcmplt                                    /usr/local/Cellar/gcc-arm-none-eabi-49/20150925/bin/../lib/gcc/arm-none-eabi/4.9.3/armv7e-m/fpu/libgcc.a(_arm_cmpdf2.o)
                                                  /usr/local/Cellar/gcc-arm-none-eabi-49/20150925/bin/../lib/gcc/arm-none-eabi/4.9.3/../../../../arm-none-eabi/lib/armv7e-m/fpu/libg.a(lib_a-dtoa.o)
                                                  /usr/local/Cellar/gcc-arm-none-eabi-49/20150925/bin/../lib/gcc/arm-none-eabi/4.9.3/../../../../arm-none-eabi/lib/armv7e-m/fpu/libg.a(lib_a-svfprintf.o)
__aeabi_ddiv                                      /usr/local/Cellar/gcc-arm-none-eabi-49/20150925/bin/../lib/gcc/arm-none-eabi/4.9.3/armv7e-m/fpu/libgcc.a(_arm_muldivdf3.o)
                                                  /usr/local/Cellar/gcc-arm-none-eabi-49/20150925/bin/../lib/gcc/arm-none-eabi/4.9.3/../../../../arm-none-eabi/lib/armv7e-m/fpu/libg.a(lib_a-mprec.o)
                                                  /usr/local/Cellar/gcc-arm-none-eabi-49/20150925/bin/../lib/gcc/arm-none-eabi/4.9.3/../../../../arm-none-eabi/lib/armv7e-m/fpu/libg.a(lib_a-dtoa.o)
__aeabi_dmul                                      /usr/local/Cellar/gcc-arm-none-eabi-49/20150925/bin/../lib/gcc/arm-none-eabi/4.9.3/armv7e-m/fpu/libgcc.a(_arm_muldivdf3.o)
                                                  /usr/local/Cellar/gcc-arm-none-eabi-49/20150925/bin/../lib/gcc/arm-none-eabi/4.9.3/../../../../arm-none-eabi/lib/armv7e-m/fpu/libg.a(lib_a-mprec.o)
                                                  /usr/local/Cellar/gcc-arm-none-eabi-49/20150925/bin/../lib/gcc/arm-none-eabi/4.9.3/../../../../arm-none-eabi/lib/armv7e-m/fpu/libg.a(lib_a-dtoa.o)
__aeabi_drsub                                     /usr/local/Cellar/gcc-arm-none-eabi-49/20150925/bin/../lib/gcc/arm-none-eabi/4.9.3/armv7e-m/fpu/libgcc.a(_arm_addsubdf3.o)
__aeabi_dsub                                      /usr/local/Cellar/gcc-arm-none-eabi-49/20150925/bin/../lib/gcc/arm-none-eabi/4.9.3/armv7e-m/fpu/libgcc.a(_arm_addsubdf3.o)
                                                  /usr/local/Cellar/gcc-arm-none-eabi-49/20150925/bin/../lib/gcc/arm-none-eabi/4.9.3/../../../../arm-none-eabi/lib/armv7e-m/fpu/libg.a(lib_a-dtoa.o)
__aeabi_f2d                                       /usr/local/Cellar/gcc-arm-none-eabi-49/20150925/bin/../lib/gcc/arm-none-eabi/4.9.3/armv7e-m/fpu/libgcc.a(_arm_addsubdf3.o)
__aeabi_i2d                                       /usr/local/Cellar/gcc-arm-none-eabi-49/20150925/bin/../lib/gcc/arm-none-eabi/4.9.3/armv7e-m/fpu/libgcc.a(_arm_addsubdf3.o)
                                                  /usr/local/Cellar/gcc-arm-none-eabi-49/20150925/bin/../lib/gcc/arm-none-eabi/4.9.3/../../../../arm-none-eabi/lib/armv7e-m/fpu/libg.a(lib_a-dtoa.o)
__aeabi_idiv0                                     /usr/local/Cellar/gcc-arm-none-eabi-49/20150925/bin/../lib/gcc/arm-none-eabi/4.9.3/armv7e-m/fpu/libgcc.a(_dvmd_tls.o)
__aeabi_l2d                                       /usr/local/Cellar/gcc-arm-none-eabi-49/20150925/bin/../lib/gcc/arm-none-eabi/4.9.3/armv7e-m/fpu/libgcc.a(_arm_addsubdf3.o)
__aeabi_ldiv0                                     /usr/local/Cellar/gcc-arm-none-eabi-49/20150925/bin/../lib/gcc/arm-none-eabi/4.9.3/armv7e-m/fpu/libgcc.a(_dvmd_tls.o)
                                                  /usr/local/Cellar/gcc-arm-none-eabi-49/20150925/bin/../lib/gcc/arm-none-eabi/4.9.3/armv7e-m/fpu/libgcc.a(_aeabi_uldivmod.o)
__aeabi_ui2d                                      /usr/local/Cellar/gcc-arm-none-eabi-49/20150925/bin/../lib/gcc/arm-none-eabi/4.9.3/armv7e-m/fpu/libgcc.a(_arm_addsubdf3.o)
                                                  /usr/local/Cellar/gcc-arm-none-eabi-49/20150925/bin/../lib/gcc/arm-none-eabi/4.9.3/../../../../arm-none-eabi/lib/armv7e-m/fpu/libg.a(lib_a-dtoa.o)
__aeabi_ul2d                                      /usr/local/Cellar/gcc-arm-none-eabi-49/20150925/bin/../lib/gcc/arm-none-eabi/4.9.3/armv7e-m/fpu/libgcc.a(_arm_addsubdf3.o)
__aeabi_uldivmod                                  /usr/local/Cellar/gcc-arm-none-eabi-49/20150925/bin/../lib/gcc/arm-none-eabi/4.9.3/armv7e-m/fpu/libgcc.a(_aeabi_uldivmod.o)
                                                  /usr/local/Cellar/gcc-arm-none-eabi-49/20150925/bin/../lib/gcc/arm-none-eabi/4.9.3/../../../../arm-none-eabi/lib/armv7e-m/fpu/libg.a(lib_a-svfiprintf.o)
                                                  /usr/local/Cellar/gcc-arm-none-eabi-49/20150925/bin/../lib/gcc/arm-none-eabi/4.9.3/../../../../arm-none-eabi/lib/armv7e-m/fpu/libg.a(lib_a-svfprintf.o)
__any_on                                          /usr/local/Cellar/gcc-arm-none-eabi-49/20150925/bin/../lib/gcc/arm-none-eabi/4.9.3/../../../../arm-none-eabi/lib/armv7e-m/fpu/libg.a(lib_a-mprec.o)
__b2d                                             /usr/local/Cellar/gcc-arm-none-eabi-49/20150925/bin/../lib/gcc/arm-none-eabi/4.9.3/../../../../arm-none-eabi/lib/armv7e-m/fpu/libg.a(lib_a-mprec.o)
__bss_base__                                      ./build/obj/crt0_v7m.o
__bss_end__                                       ./build/obj/crt0_v7m.o
__ch_delegate_fn0                                 ./build/obj/chdelegates.o (symbol from plugin)
__ch_delegate_fn1                                 ./build/obj/chdelegates.o (symbol from plugin)
__ch_delegate_fn2                                 ./build/obj/chdelegates.o (symbol from plugin)
__ch_delegate_fn3                                 ./build/obj/chdelegates.o (symbol from plugin)
__ch_delegate_fn4                                 ./build/obj/chdelegates.o (symbol from plugin)
__cmpdf2                                          /usr/local/Cellar/gcc-arm-none-eabi-49/20150925/bin/../lib/gcc/arm-none-eabi/4.9.3/armv7e-m/fpu/libgcc.a(_arm_cmpdf2.o)
__copybits                                        /usr/local/Cellar/gcc-arm-none-eabi-49/20150925/bin/../lib/gcc/arm-none-eabi/4.9.3/../../../../arm-none-eabi/lib/armv7e-m/fpu/libg.a(lib_a-mprec.o)
__core_init                                       /var/folders/_f/jzb7lsz153bclt069nvlpp5r0000gn/T//ccGAufxj.ltrans7.ltrans.o
                                                  ./build/obj/crt1.o (symbol from plugin)
                                                  ./build/obj/crt0_v7m.o
__d2b                                             /usr/local/Cellar/gcc-arm-none-eabi-49/20150925/bin/../lib/gcc/arm-none-eabi/4.9.3/../../../../arm-none-eabi/lib/armv7e-m/fpu/libg.a(lib_a-mprec.o)
                                                  /usr/local/Cellar/gcc-arm-none-eabi-49/20150925/bin/../lib/gcc/arm-none-eabi/4.9.3/../../../../arm-none-eabi/lib/armv7e-m/fpu/libg.a(lib_a-dtoa.o)
__data_base__                                     ./build/obj/crt0_v7m.o
__data_end__                                      ./build/obj/crt0_v7m.o
__default_exit                                    /var/folders/_f/jzb7lsz153bclt069nvlpp5r0000gn/T//ccGAufxj.ltrans7.ltrans.o
                                                  ./build/obj/crt1.o (symbol from plugin)
                                                  ./build/obj/crt0_v7m.o
__divdf3                                          /usr/local/Cellar/gcc-arm-none-eabi-49/20150925/bin/../lib/gcc/arm-none-eabi/4.9.3/armv7e-m/fpu/libgcc.a(_arm_muldivdf3.o)
__divdi3                                          /usr/local/Cellar/gcc-arm-none-eabi-49/20150925/bin/../lib/gcc/arm-none-eabi/4.9.3/armv7e-m/fpu/libgcc.a(_divdi3.o)
                                                  /usr/local/Cellar/gcc-arm-none-eabi-49/20150925/bin/../lib/gcc/arm-none-eabi/4.9.3/armv7e-m/fpu/libgcc.a(bpabi.o)
__early_init                                      /var/folders/_f/jzb7lsz153bclt069nvlpp5r0000gn/T//ccGAufxj.ltrans4.ltrans.o
                                                  ./build/obj/board.o (symbol from plugin)
                                                  ./build/obj/crt1.o (symbol from plugin)
                                                  ./build/obj/crt0_v7m.o
__eqdf2                                           /usr/local/Cellar/gcc-arm-none-eabi-49/20150925/bin/../lib/gcc/arm-none-eabi/4.9.3/armv7e-m/fpu/libgcc.a(_arm_cmpdf2.o)
__extendsfdf2                                     /usr/local/Cellar/gcc-arm-none-eabi-49/20150925/bin/../lib/gcc/arm-none-eabi/4.9.3/armv7e-m/fpu/libgcc.a(_arm_addsubdf3.o)
__fini_array_base__                               ./build/obj/crt0_v7m.o
__fini_array_end__                                ./build/obj/crt0_v7m.o
__fixdfsi                                         /usr/local/Cellar/gcc-arm-none-eabi-49/20150925/bin/../lib/gcc/arm-none-eabi/4.9.3/armv7e-m/fpu/libgcc.a(_arm_fixdfsi.o)
__floatdidf                                       /usr/local/Cellar/gcc-arm-none-eabi-49/20150925/bin/../lib/gcc/arm-none-eabi/4.9.3/armv7e-m/fpu/libgcc.a(_arm_addsubdf3.o)
__floatsidf                                       /usr/local/Cellar/gcc-arm-none-eabi-49/20150925/bin/../lib/gcc/arm-none-eabi/4.9.3/armv7e-m/fpu/libgcc.a(_arm_addsubdf3.o)
__floatundidf                                     /usr/local/Cellar/gcc-arm-none-eabi-49/20150925/bin/../lib/gcc/arm-none-eabi/4.9.3/armv7e-m/fpu/libgcc.a(_arm_addsubdf3.o)
__floatunsidf                                     /usr/local/Cellar/gcc-arm-none-eabi-49/20150925/bin/../lib/gcc/arm-none-eabi/4.9.3/armv7e-m/fpu/libgcc.a(_arm_addsubdf3.o)
__fpclassifyd                                     /usr/local/Cellar/gcc-arm-none-eabi-49/20150925/bin/../lib/gcc/arm-none-eabi/4.9.3/../../../../arm-none-eabi/lib/armv7e-m/fpu/libg.a(lib_a-s_fpclassify.o)
                                                  /usr/local/Cellar/gcc-arm-none-eabi-49/20150925/bin/../lib/gcc/arm-none-eabi/4.9.3/../../../../arm-none-eabi/lib/armv7e-m/fpu/libg.a(lib_a-svfprintf.o)
__func__.5946.lto_priv.108                        /var/folders/_f/jzb7lsz153bclt069nvlpp5r0000gn/T//ccGAufxj.ltrans8.ltrans.o
                                                  /var/folders/_f/jzb7lsz153bclt069nvlpp5r0000gn/T//ccGAufxj.ltrans1.ltrans.o
__func__.5946.lto_priv.70                         /var/folders/_f/jzb7lsz153bclt069nvlpp5r0000gn/T//ccGAufxj.ltrans0.ltrans.o
                                                  /var/folders/_f/jzb7lsz153bclt069nvlpp5r0000gn/T//ccGAufxj.ltrans1.ltrans.o
__func__.8760.lto_priv.117                        /var/folders/_f/jzb7lsz153bclt069nvlpp5r0000gn/T//ccGAufxj.ltrans4.ltrans.o
                                                  /var/folders/_f/jzb7lsz153bclt069nvlpp5r0000gn/T//ccGAufxj.ltrans7.ltrans.o
__gedf2                                           /usr/local/Cellar/gcc-arm-none-eabi-49/20150925/bin/../lib/gcc/arm-none-eabi/4.9.3/armv7e-m/fpu/libgcc.a(_arm_cmpdf2.o)
__gnu_ldivmod_helper                              /usr/local/Cellar/gcc-arm-none-eabi-49/20150925/bin/../lib/gcc/arm-none-eabi/4.9.3/armv7e-m/fpu/libgcc.a(bpabi.o)
__gnu_uldivmod_helper                             /usr/local/Cellar/gcc-arm-none-eabi-49/20150925/bin/../lib/gcc/arm-none-eabi/4.9.3/armv7e-m/fpu/libgcc.a(bpabi.o)
                                                  /usr/local/Cellar/gcc-arm-none-eabi-49/20150925/bin/../lib/gcc/arm-none-eabi/4.9.3/armv7e-m/fpu/libgcc.a(_aeabi_uldivmod.o)
__gtdf2                                           /usr/local/Cellar/gcc-arm-none-eabi-49/20150925/bin/../lib/gcc/arm-none-eabi/4.9.3/armv7e-m/fpu/libgcc.a(_arm_cmpdf2.o)
__heap_base__                                     /var/folders/_f/jzb7lsz153bclt069nvlpp5r0000gn/T//ccGAufxj.ltrans0.ltrans.o
                                                  ./build/obj/chmemcore.o (symbol from plugin)
__heap_end__                                      /var/folders/_f/jzb7lsz153bclt069nvlpp5r0000gn/T//ccGAufxj.ltrans0.ltrans.o
                                                  ./build/obj/chmemcore.o (symbol from plugin)
__hi0bits                                         /usr/local/Cellar/gcc-arm-none-eabi-49/20150925/bin/../lib/gcc/arm-none-eabi/4.9.3/../../../../arm-none-eabi/lib/armv7e-m/fpu/libg.a(lib_a-mprec.o)
                                                  /usr/local/Cellar/gcc-arm-none-eabi-49/20150925/bin/../lib/gcc/arm-none-eabi/4.9.3/../../../../arm-none-eabi/lib/armv7e-m/fpu/libg.a(lib_a-dtoa.o)
__i2b                                             /usr/local/Cellar/gcc-arm-none-eabi-49/20150925/bin/../lib/gcc/arm-none-eabi/4.9.3/../../../../arm-none-eabi/lib/armv7e-m/fpu/libg.a(lib_a-mprec.o)
                                                  /usr/local/Cellar/gcc-arm-none-eabi-49/20150925/bin/../lib/gcc/arm-none-eabi/4.9.3/../../../../arm-none-eabi/lib/armv7e-m/fpu/libg.a(lib_a-dtoa.o)
__init_array_base__                               ./build/obj/crt0_v7m.o
__init_array_end__                                ./build/obj/crt0_v7m.o
__init_ram_areas                                  /var/folders/_f/jzb7lsz153bclt069nvlpp5r0000gn/T//ccGAufxj.ltrans7.ltrans.o
                                                  ./build/obj/crt1.o (symbol from plugin)
                                                  ./build/obj/crt0_v7m.o
__late_init                                       /var/folders/_f/jzb7lsz153bclt069nvlpp5r0000gn/T//ccGAufxj.ltrans7.ltrans.o
                                                  ./build/obj/crt1.o (symbol from plugin)
                                                  ./build/obj/crt0_v7m.o
__ledf2                                           /usr/local/Cellar/gcc-arm-none-eabi-49/20150925/bin/../lib/gcc/arm-none-eabi/4.9.3/armv7e-m/fpu/libgcc.a(_arm_cmpdf2.o)
__lo0bits                                         /usr/local/Cellar/gcc-arm-none-eabi-49/20150925/bin/../lib/gcc/arm-none-eabi/4.9.3/../../../../arm-none-eabi/lib/armv7e-m/fpu/libg.a(lib_a-mprec.o)
__locale_charset                                  /usr/local/Cellar/gcc-arm-none-eabi-49/20150925/bin/../lib/gcc/arm-none-eabi/4.9.3/../../../../arm-none-eabi/lib/armv7e-m/fpu/libg.a(lib_a-locale.o)
__locale_cjk_lang                                 /usr/local/Cellar/gcc-arm-none-eabi-49/20150925/bin/../lib/gcc/arm-none-eabi/4.9.3/../../../../arm-none-eabi/lib/armv7e-m/fpu/libg.a(lib_a-locale.o)
__locale_mb_cur_max                               /usr/local/Cellar/gcc-arm-none-eabi-49/20150925/bin/../lib/gcc/arm-none-eabi/4.9.3/../../../../arm-none-eabi/lib/armv7e-m/fpu/libg.a(lib_a-locale.o)
__locale_msgcharset                               /usr/local/Cellar/gcc-arm-none-eabi-49/20150925/bin/../lib/gcc/arm-none-eabi/4.9.3/../../../../arm-none-eabi/lib/armv7e-m/fpu/libg.a(lib_a-locale.o)
__lshift                                          /usr/local/Cellar/gcc-arm-none-eabi-49/20150925/bin/../lib/gcc/arm-none-eabi/4.9.3/../../../../arm-none-eabi/lib/armv7e-m/fpu/libg.a(lib_a-mprec.o)
                                                  /usr/local/Cellar/gcc-arm-none-eabi-49/20150925/bin/../lib/gcc/arm-none-eabi/4.9.3/../../../../arm-none-eabi/lib/armv7e-m/fpu/libg.a(lib_a-dtoa.o)
__ltdf2                                           /usr/local/Cellar/gcc-arm-none-eabi-49/20150925/bin/../lib/gcc/arm-none-eabi/4.9.3/armv7e-m/fpu/libgcc.a(_arm_cmpdf2.o)
__main_stack_base__                               ./build/obj/crt0_v7m.o
__main_stack_end__                                ./build/obj/vectors.o
                                                  ./build/obj/crt0_v7m.o
__main_thread_stack_base__                        /var/folders/_f/jzb7lsz153bclt069nvlpp5r0000gn/T//ccGAufxj.ltrans0.ltrans.o
                                                  ./build/obj/chsys.o (symbol from plugin)
__malloc_av_                                      /usr/local/Cellar/gcc-arm-none-eabi-49/20150925/bin/../lib/gcc/arm-none-eabi/4.9.3/../../../../arm-none-eabi/lib/armv7e-m/fpu/libg.a(lib_a-mallocr.o)
                                                  /usr/local/Cellar/gcc-arm-none-eabi-49/20150925/bin/../lib/gcc/arm-none-eabi/4.9.3/../../../../arm-none-eabi/lib/armv7e-m/fpu/libg.a(lib_a-reallocr.o)
                                                  /usr/local/Cellar/gcc-arm-none-eabi-49/20150925/bin/../lib/gcc/arm-none-eabi/4.9.3/../../../../arm-none-eabi/lib/armv7e-m/fpu/libg.a(lib_a-freer.o)
__malloc_current_mallinfo                         /usr/local/Cellar/gcc-arm-none-eabi-49/20150925/bin/../lib/gcc/arm-none-eabi/4.9.3/../../../../arm-none-eabi/lib/armv7e-m/fpu/libg.a(lib_a-mallocr.o)
                                                  /usr/local/Cellar/gcc-arm-none-eabi-49/20150925/bin/../lib/gcc/arm-none-eabi/4.9.3/../../../../arm-none-eabi/lib/armv7e-m/fpu/libg.a(lib_a-freer.o)
__malloc_lock                                     /usr/local/Cellar/gcc-arm-none-eabi-49/20150925/bin/../lib/gcc/arm-none-eabi/4.9.3/../../../../arm-none-eabi/lib/armv7e-m/fpu/libg.a(lib_a-mlock.o)
                                                  /usr/local/Cellar/gcc-arm-none-eabi-49/20150925/bin/../lib/gcc/arm-none-eabi/4.9.3/../../../../arm-none-eabi/lib/armv7e-m/fpu/libg.a(lib_a-reallocr.o)
                                                  /usr/local/Cellar/gcc-arm-none-eabi-49/20150925/bin/../lib/gcc/arm-none-eabi/4.9.3/../../../../arm-none-eabi/lib/armv7e-m/fpu/libg.a(lib_a-freer.o)
                                                  /usr/local/Cellar/gcc-arm-none-eabi-49/20150925/bin/../lib/gcc/arm-none-eabi/4.9.3/../../../../arm-none-eabi/lib/armv7e-m/fpu/libg.a(lib_a-mallocr.o)
__malloc_max_sbrked_mem                           /usr/local/Cellar/gcc-arm-none-eabi-49/20150925/bin/../lib/gcc/arm-none-eabi/4.9.3/../../../../arm-none-eabi/lib/armv7e-m/fpu/libg.a(lib_a-mallocr.o)
__malloc_max_total_mem                            /usr/local/Cellar/gcc-arm-none-eabi-49/20150925/bin/../lib/gcc/arm-none-eabi/4.9.3/../../../../arm-none-eabi/lib/armv7e-m/fpu/libg.a(lib_a-mallocr.o)
__malloc_sbrk_base                                /usr/local/Cellar/gcc-arm-none-eabi-49/20150925/bin/../lib/gcc/arm-none-eabi/4.9.3/../../../../arm-none-eabi/lib/armv7e-m/fpu/libg.a(lib_a-mallocr.o)
                                                  /usr/local/Cellar/gcc-arm-none-eabi-49/20150925/bin/../lib/gcc/arm-none-eabi/4.9.3/../../../../arm-none-eabi/lib/armv7e-m/fpu/libg.a(lib_a-freer.o)
__malloc_top_pad                                  /usr/local/Cellar/gcc-arm-none-eabi-49/20150925/bin/../lib/gcc/arm-none-eabi/4.9.3/../../../../arm-none-eabi/lib/armv7e-m/fpu/libg.a(lib_a-mallocr.o)
                                                  /usr/local/Cellar/gcc-arm-none-eabi-49/20150925/bin/../lib/gcc/arm-none-eabi/4.9.3/../../../../arm-none-eabi/lib/armv7e-m/fpu/libg.a(lib_a-freer.o)
__malloc_trim_threshold                           /usr/local/Cellar/gcc-arm-none-eabi-49/20150925/bin/../lib/gcc/arm-none-eabi/4.9.3/../../../../arm-none-eabi/lib/armv7e-m/fpu/libg.a(lib_a-mallocr.o)
                                                  /usr/local/Cellar/gcc-arm-none-eabi-49/20150925/bin/../lib/gcc/arm-none-eabi/4.9.3/../../../../arm-none-eabi/lib/armv7e-m/fpu/libg.a(lib_a-freer.o)
__malloc_unlock                                   /usr/local/Cellar/gcc-arm-none-eabi-49/20150925/bin/../lib/gcc/arm-none-eabi/4.9.3/../../../../arm-none-eabi/lib/armv7e-m/fpu/libg.a(lib_a-mlock.o)
                                                  /usr/local/Cellar/gcc-arm-none-eabi-49/20150925/bin/../lib/gcc/arm-none-eabi/4.9.3/../../../../arm-none-eabi/lib/armv7e-m/fpu/libg.a(lib_a-reallocr.o)
                                                  /usr/local/Cellar/gcc-arm-none-eabi-49/20150925/bin/../lib/gcc/arm-none-eabi/4.9.3/../../../../arm-none-eabi/lib/armv7e-m/fpu/libg.a(lib_a-freer.o)
                                                  /usr/local/Cellar/gcc-arm-none-eabi-49/20150925/bin/../lib/gcc/arm-none-eabi/4.9.3/../../../../arm-none-eabi/lib/armv7e-m/fpu/libg.a(lib_a-mallocr.o)
__mb_cur_max                                      /usr/local/Cellar/gcc-arm-none-eabi-49/20150925/bin/../lib/gcc/arm-none-eabi/4.9.3/../../../../arm-none-eabi/lib/armv7e-m/fpu/libg.a(lib_a-locale.o)
__mcmp                                            /usr/local/Cellar/gcc-arm-none-eabi-49/20150925/bin/../lib/gcc/arm-none-eabi/4.9.3/../../../../arm-none-eabi/lib/armv7e-m/fpu/libg.a(lib_a-mprec.o)
                                                  /usr/local/Cellar/gcc-arm-none-eabi-49/20150925/bin/../lib/gcc/arm-none-eabi/4.9.3/../../../../arm-none-eabi/lib/armv7e-m/fpu/libg.a(lib_a-dtoa.o)
__mdiff                                           /usr/local/Cellar/gcc-arm-none-eabi-49/20150925/bin/../lib/gcc/arm-none-eabi/4.9.3/../../../../arm-none-eabi/lib/armv7e-m/fpu/libg.a(lib_a-mprec.o)
                                                  /usr/local/Cellar/gcc-arm-none-eabi-49/20150925/bin/../lib/gcc/arm-none-eabi/4.9.3/../../../../arm-none-eabi/lib/armv7e-m/fpu/libg.a(lib_a-dtoa.o)
__mlocale_changed                                 /usr/local/Cellar/gcc-arm-none-eabi-49/20150925/bin/../lib/gcc/arm-none-eabi/4.9.3/../../../../arm-none-eabi/lib/armv7e-m/fpu/libg.a(lib_a-locale.o)
__mprec_bigtens                                   /usr/local/Cellar/gcc-arm-none-eabi-49/20150925/bin/../lib/gcc/arm-none-eabi/4.9.3/../../../../arm-none-eabi/lib/armv7e-m/fpu/libg.a(lib_a-mprec.o)
                                                  /usr/local/Cellar/gcc-arm-none-eabi-49/20150925/bin/../lib/gcc/arm-none-eabi/4.9.3/../../../../arm-none-eabi/lib/armv7e-m/fpu/libg.a(lib_a-dtoa.o)
__mprec_tens                                      /usr/local/Cellar/gcc-arm-none-eabi-49/20150925/bin/../lib/gcc/arm-none-eabi/4.9.3/../../../../arm-none-eabi/lib/armv7e-m/fpu/libg.a(lib_a-mprec.o)
                                                  /usr/local/Cellar/gcc-arm-none-eabi-49/20150925/bin/../lib/gcc/arm-none-eabi/4.9.3/../../../../arm-none-eabi/lib/armv7e-m/fpu/libg.a(lib_a-dtoa.o)
__mprec_tinytens                                  /usr/local/Cellar/gcc-arm-none-eabi-49/20150925/bin/../lib/gcc/arm-none-eabi/4.9.3/../../../../arm-none-eabi/lib/armv7e-m/fpu/libg.a(lib_a-mprec.o)
__muldf3                                          /usr/local/Cellar/gcc-arm-none-eabi-49/20150925/bin/../lib/gcc/arm-none-eabi/4.9.3/armv7e-m/fpu/libgcc.a(_arm_muldivdf3.o)
__multadd                                         /usr/local/Cellar/gcc-arm-none-eabi-49/20150925/bin/../lib/gcc/arm-none-eabi/4.9.3/../../../../arm-none-eabi/lib/armv7e-m/fpu/libg.a(lib_a-mprec.o)
                                                  /usr/local/Cellar/gcc-arm-none-eabi-49/20150925/bin/../lib/gcc/arm-none-eabi/4.9.3/../../../../arm-none-eabi/lib/armv7e-m/fpu/libg.a(lib_a-dtoa.o)
__multiply                                        /usr/local/Cellar/gcc-arm-none-eabi-49/20150925/bin/../lib/gcc/arm-none-eabi/4.9.3/../../../../arm-none-eabi/lib/armv7e-m/fpu/libg.a(lib_a-mprec.o)
                                                  /usr/local/Cellar/gcc-arm-none-eabi-49/20150925/bin/../lib/gcc/arm-none-eabi/4.9.3/../../../../arm-none-eabi/lib/armv7e-m/fpu/libg.a(lib_a-dtoa.o)
__nedf2                                           /usr/local/Cellar/gcc-arm-none-eabi-49/20150925/bin/../lib/gcc/arm-none-eabi/4.9.3/armv7e-m/fpu/libgcc.a(_arm_cmpdf2.o)
__nlocale_changed                                 /usr/local/Cellar/gcc-arm-none-eabi-49/20150925/bin/../lib/gcc/arm-none-eabi/4.9.3/../../../../arm-none-eabi/lib/armv7e-m/fpu/libg.a(lib_a-locale.o)
__pow5mult                                        /usr/local/Cellar/gcc-arm-none-eabi-49/20150925/bin/../lib/gcc/arm-none-eabi/4.9.3/../../../../arm-none-eabi/lib/armv7e-m/fpu/libg.a(lib_a-mprec.o)
                                                  /usr/local/Cellar/gcc-arm-none-eabi-49/20150925/bin/../lib/gcc/arm-none-eabi/4.9.3/../../../../arm-none-eabi/lib/armv7e-m/fpu/libg.a(lib_a-dtoa.o)
__process_stack_base__                            ./build/obj/crt0_v7m.o
__process_stack_end__                             ./build/obj/crt0_v7m.o
__ram0_clear__                                    /var/folders/_f/jzb7lsz153bclt069nvlpp5r0000gn/T//ccGAufxj.ltrans7.ltrans.o
                                                  ./build/obj/crt1.o (symbol from plugin)
__ram0_init__                                     /var/folders/_f/jzb7lsz153bclt069nvlpp5r0000gn/T//ccGAufxj.ltrans7.ltrans.o
                                                  ./build/obj/crt1.o (symbol from plugin)
__ram0_init_text__                                /var/folders/_f/jzb7lsz153bclt069nvlpp5r0000gn/T//ccGAufxj.ltrans7.ltrans.o
                                                  ./build/obj/crt1.o (symbol from plugin)
__ram0_noinit__                                   /var/folders/_f/jzb7lsz153bclt069nvlpp5r0000gn/T//ccGAufxj.ltrans7.ltrans.o
                                                  ./build/obj/crt1.o (symbol from plugin)
__ram1_clear__                                    /var/folders/_f/jzb7lsz153bclt069nvlpp5r0000gn/T//ccGAufxj.ltrans7.ltrans.o
                                                  ./build/obj/crt1.o (symbol from plugin)
__ram1_init__                                     /var/folders/_f/jzb7lsz153bclt069nvlpp5r0000gn/T//ccGAufxj.ltrans7.ltrans.o
                                                  ./build/obj/crt1.o (symbol from plugin)
__ram1_init_text__                                /var/folders/_f/jzb7lsz153bclt069nvlpp5r0000gn/T//ccGAufxj.ltrans7.ltrans.o
                                                  ./build/obj/crt1.o (symbol from plugin)
__ram1_noinit__                                   /var/folders/_f/jzb7lsz153bclt069nvlpp5r0000gn/T//ccGAufxj.ltrans7.ltrans.o
                                                  ./build/obj/crt1.o (symbol from plugin)
__ram2_clear__                                    /var/folders/_f/jzb7lsz153bclt069nvlpp5r0000gn/T//ccGAufxj.ltrans7.ltrans.o
                                                  ./build/obj/crt1.o (symbol from plugin)
__ram2_init__                                     /var/folders/_f/jzb7lsz153bclt069nvlpp5r0000gn/T//ccGAufxj.ltrans7.ltrans.o
                                                  ./build/obj/crt1.o (symbol from plugin)
__ram2_init_text__                                /var/folders/_f/jzb7lsz153bclt069nvlpp5r0000gn/T//ccGAufxj.ltrans7.ltrans.o
                                                  ./build/obj/crt1.o (symbol from plugin)
__ram2_noinit__                                   /var/folders/_f/jzb7lsz153bclt069nvlpp5r0000gn/T//ccGAufxj.ltrans7.ltrans.o
                                                  ./build/obj/crt1.o (symbol from plugin)
__ram3_clear__                                    /var/folders/_f/jzb7lsz153bclt069nvlpp5r0000gn/T//ccGAufxj.ltrans7.ltrans.o
                                                  ./build/obj/crt1.o (symbol from plugin)
__ram3_init__                                     /var/folders/_f/jzb7lsz153bclt069nvlpp5r0000gn/T//ccGAufxj.ltrans7.ltrans.o
                                                  ./build/obj/crt1.o (symbol from plugin)
__ram3_init_text__                                /var/folders/_f/jzb7lsz153bclt069nvlpp5r0000gn/T//ccGAufxj.ltrans7.ltrans.o
                                                  ./build/obj/crt1.o (symbol from plugin)
__ram3_noinit__                                   /var/folders/_f/jzb7lsz153bclt069nvlpp5r0000gn/T//ccGAufxj.ltrans7.ltrans.o
                                                  ./build/obj/crt1.o (symbol from plugin)
__ram4_clear__                                    /var/folders/_f/jzb7lsz153bclt069nvlpp5r0000gn/T//ccGAufxj.ltrans7.ltrans.o
                                                  ./build/obj/crt1.o (symbol from plugin)
__ram4_init__                                     /var/folders/_f/jzb7lsz153bclt069nvlpp5r0000gn/T//ccGAufxj.ltrans7.ltrans.o
                                                  ./build/obj/crt1.o (symbol from plugin)
__ram4_init_text__                                /var/folders/_f/jzb7lsz153bclt069nvlpp5r0000gn/T//ccGAufxj.ltrans7.ltrans.o
                                                  ./build/obj/crt1.o (symbol from plugin)
__ram4_noinit__                                   /var/folders/_f/jzb7lsz153bclt069nvlpp5r0000gn/T//ccGAufxj.ltrans7.ltrans.o
                                                  ./build/obj/crt1.o (symbol from plugin)
__ram5_clear__                                    /var/folders/_f/jzb7lsz153bclt069nvlpp5r0000gn/T//ccGAufxj.ltrans7.ltrans.o
                                                  ./build/obj/crt1.o (symbol from plugin)
__ram5_init__                                     /var/folders/_f/jzb7lsz153bclt069nvlpp5r0000gn/T//ccGAufxj.ltrans7.ltrans.o
                                                  ./build/obj/crt1.o (symbol from plugin)
__ram5_init_text__                                /var/folders/_f/jzb7lsz153bclt069nvlpp5r0000gn/T//ccGAufxj.ltrans7.ltrans.o
                                                  ./build/obj/crt1.o (symbol from plugin)
__ram5_noinit__                                   /var/folders/_f/jzb7lsz153bclt069nvlpp5r0000gn/T//ccGAufxj.ltrans7.ltrans.o
                                                  ./build/obj/crt1.o (symbol from plugin)
__ram6_clear__                                    /var/folders/_f/jzb7lsz153bclt069nvlpp5r0000gn/T//ccGAufxj.ltrans7.ltrans.o
                                                  ./build/obj/crt1.o (symbol from plugin)
__ram6_init__                                     /var/folders/_f/jzb7lsz153bclt069nvlpp5r0000gn/T//ccGAufxj.ltrans7.ltrans.o
                                                  ./build/obj/crt1.o (symbol from plugin)
__ram6_init_text__                                /var/folders/_f/jzb7lsz153bclt069nvlpp5r0000gn/T//ccGAufxj.ltrans7.ltrans.o
                                                  ./build/obj/crt1.o (symbol from plugin)
__ram6_noinit__                                   /var/folders/_f/jzb7lsz153bclt069nvlpp5r0000gn/T//ccGAufxj.ltrans7.ltrans.o
                                                  ./build/obj/crt1.o (symbol from plugin)
__ram7_clear__                                    /var/folders/_f/jzb7lsz153bclt069nvlpp5r0000gn/T//ccGAufxj.ltrans7.ltrans.o
                                                  ./build/obj/crt1.o (symbol from plugin)
__ram7_init__                                     /var/folders/_f/jzb7lsz153bclt069nvlpp5r0000gn/T//ccGAufxj.ltrans7.ltrans.o
                                                  ./build/obj/crt1.o (symbol from plugin)
__ram7_init_text__                                /var/folders/_f/jzb7lsz153bclt069nvlpp5r0000gn/T//ccGAufxj.ltrans7.ltrans.o
                                                  ./build/obj/crt1.o (symbol from plugin)
__ram7_noinit__                                   /var/folders/_f/jzb7lsz153bclt069nvlpp5r0000gn/T//ccGAufxj.ltrans7.ltrans.o
                                                  ./build/obj/crt1.o (symbol from plugin)
__ratio                                           /usr/local/Cellar/gcc-arm-none-eabi-49/20150925/bin/../lib/gcc/arm-none-eabi/4.9.3/../../../../arm-none-eabi/lib/armv7e-m/fpu/libg.a(lib_a-mprec.o)
__s2b                                             /usr/local/Cellar/gcc-arm-none-eabi-49/20150925/bin/../lib/gcc/arm-none-eabi/4.9.3/../../../../arm-none-eabi/lib/armv7e-m/fpu/libg.a(lib_a-mprec.o)
__ssprint_r                                       /usr/local/Cellar/gcc-arm-none-eabi-49/20150925/bin/../lib/gcc/arm-none-eabi/4.9.3/../../../../arm-none-eabi/lib/armv7e-m/fpu/libg.a(lib_a-svfiprintf.o)
                                                  /usr/local/Cellar/gcc-arm-none-eabi-49/20150925/bin/../lib/gcc/arm-none-eabi/4.9.3/../../../../arm-none-eabi/lib/armv7e-m/fpu/libg.a(lib_a-svfprintf.o)
__subdf3                                          /usr/local/Cellar/gcc-arm-none-eabi-49/20150925/bin/../lib/gcc/arm-none-eabi/4.9.3/armv7e-m/fpu/libgcc.a(_arm_addsubdf3.o)
__textdata_base__                                 ./build/obj/crt0_v7m.o
__udivdi3                                         /usr/local/Cellar/gcc-arm-none-eabi-49/20150925/bin/../lib/gcc/arm-none-eabi/4.9.3/armv7e-m/fpu/libgcc.a(_udivdi3.o)
                                                  /usr/local/Cellar/gcc-arm-none-eabi-49/20150925/bin/../lib/gcc/arm-none-eabi/4.9.3/armv7e-m/fpu/libgcc.a(bpabi.o)
__ulp                                             /usr/local/Cellar/gcc-arm-none-eabi-49/20150925/bin/../lib/gcc/arm-none-eabi/4.9.3/../../../../arm-none-eabi/lib/armv7e-m/fpu/libg.a(lib_a-mprec.o)
_calloc_r                                         /usr/local/Cellar/gcc-arm-none-eabi-49/20150925/bin/../lib/gcc/arm-none-eabi/4.9.3/../../../../arm-none-eabi/lib/armv7e-m/fpu/libg.a(lib_a-callocr.o)
                                                  /usr/local/Cellar/gcc-arm-none-eabi-49/20150925/bin/../lib/gcc/arm-none-eabi/4.9.3/../../../../arm-none-eabi/lib/armv7e-m/fpu/libg.a(lib_a-mprec.o)
_close_r                                          /var/folders/_f/jzb7lsz153bclt069nvlpp5r0000gn/T//ccGAufxj.ltrans8.ltrans.o
                                                  ./build/obj/syscalls.o (symbol from plugin)
_core_init                                        ./build/obj/chmemcore.o (symbol from plugin)
                                                  ./build/obj/chsys.o (symbol from plugin)
_crt0_entry                                       ./build/obj/crt0_v7m.o
                                                  ./build/obj/vectors.o
_ctl.lto_priv.91                                  /var/folders/_f/jzb7lsz153bclt069nvlpp5r0000gn/T//ccGAufxj.ltrans7.ltrans.o
                                                  /var/folders/_f/jzb7lsz153bclt069nvlpp5r0000gn/T//ccGAufxj.ltrans0.ltrans.o
_dbg_check_disable                                ./build/obj/chdebug.o (symbol from plugin)
_dbg_check_enable                                 ./build/obj/chdebug.o (symbol from plugin)
                                                  ./build/obj/chsys.o (symbol from plugin)
_dbg_check_enter_isr                              /var/folders/_f/jzb7lsz153bclt069nvlpp5r0000gn/T//ccGAufxj.ltrans4.ltrans.o
                                                  ./build/obj/chdebug.o (symbol from plugin)
                                                  /var/folders/_f/jzb7lsz153bclt069nvlpp5r0000gn/T//ccGAufxj.ltrans6.ltrans.o
                                                  /var/folders/_f/jzb7lsz153bclt069nvlpp5r0000gn/T//ccGAufxj.ltrans5.ltrans.o
                                                  ./build/obj/sys_time.o (symbol from plugin)
                                                  ./build/obj/hal_st_lld.o (symbol from plugin)
                                                  ./build/obj/hal_usb_lld.o (symbol from plugin)
                                                  ./build/obj/stm32_dma.o (symbol from plugin)
                                                  ./build/obj/stm32_isr.o (symbol from plugin)
_dbg_check_leave_isr                              /var/folders/_f/jzb7lsz153bclt069nvlpp5r0000gn/T//ccGAufxj.ltrans1.ltrans.o
                                                  ./build/obj/chdebug.o (symbol from plugin)
                                                  /var/folders/_f/jzb7lsz153bclt069nvlpp5r0000gn/T//ccGAufxj.ltrans6.ltrans.o
                                                  /var/folders/_f/jzb7lsz153bclt069nvlpp5r0000gn/T//ccGAufxj.ltrans5.ltrans.o
                                                  /var/folders/_f/jzb7lsz153bclt069nvlpp5r0000gn/T//ccGAufxj.ltrans4.ltrans.o
                                                  ./build/obj/sys_time.o (symbol from plugin)
                                                  ./build/obj/hal_st_lld.o (symbol from plugin)
                                                  ./build/obj/hal_usb_lld.o (symbol from plugin)
                                                  ./build/obj/stm32_dma.o (symbol from plugin)
                                                  ./build/obj/stm32_isr.o (symbol from plugin)
_dbg_check_lock                                   /var/folders/_f/jzb7lsz153bclt069nvlpp5r0000gn/T//ccGAufxj.ltrans4.ltrans.o
                                                  ./build/obj/chdebug.o (symbol from plugin)
                                                  /var/folders/_f/jzb7lsz153bclt069nvlpp5r0000gn/T//ccGAufxj.ltrans8.ltrans.o
                                                  /var/folders/_f/jzb7lsz153bclt069nvlpp5r0000gn/T//ccGAufxj.ltrans7.ltrans.o
                                                  /var/folders/_f/jzb7lsz153bclt069nvlpp5r0000gn/T//ccGAufxj.ltrans5.ltrans.o
                                                  /var/folders/_f/jzb7lsz153bclt069nvlpp5r0000gn/T//ccGAufxj.ltrans1.ltrans.o
                                                  /var/folders/_f/jzb7lsz153bclt069nvlpp5r0000gn/T//ccGAufxj.ltrans0.ltrans.o
                                                  ./build/obj/svm_chibios.o (symbol from plugin)
                                                  ./build/obj/sys_time.o (symbol from plugin)
                                                  ./build/obj/chdelegates.o (symbol from plugin)
                                                  ./build/obj/chobjcaches.o (symbol from plugin)
                                                  ./build/obj/chpipes.o (symbol from plugin)
                                                  ./build/obj/chmempools.o (symbol from plugin)
                                                  ./build/obj/chmemcore.o (symbol from plugin)
                                                  ./build/obj/chmboxes.o (symbol from plugin)
                                                  ./build/obj/chdynamic.o (symbol from plugin)
                                                  ./build/obj/chmsg.o (symbol from plugin)
                                                  ./build/obj/chevents.o (symbol from plugin)
                                                  ./build/obj/chcond.o (symbol from plugin)
                                                  ./build/obj/chmtx.o (symbol from plugin)
                                                  ./build/obj/chsem.o (symbol from plugin)
                                                  ./build/obj/chregistry.o (symbol from plugin)
                                                  ./build/obj/chthreads.o (symbol from plugin)
                                                  ./build/obj/chtrace.o (symbol from plugin)
                                                  ./build/obj/chsys.o (symbol from plugin)
                                                  ./build/obj/stm32_dma.o (symbol from plugin)
                                                  ./build/obj/hal_usb.o (symbol from plugin)
                                                  ./build/obj/hal_serial_usb.o (symbol from plugin)
                                                  ./build/obj/hal_dac.o (symbol from plugin)
                                                  ./build/obj/hal_queues.o (symbol from plugin)
                                                  ./build/obj/hal_buffers.o (symbol from plugin)
                                                  ./build/obj/chcoreasm_v7m.o
_dbg_check_lock_from_isr                          /var/folders/_f/jzb7lsz153bclt069nvlpp5r0000gn/T//ccGAufxj.ltrans4.ltrans.o
                                                  ./build/obj/chdebug.o (symbol from plugin)
                                                  /var/folders/_f/jzb7lsz153bclt069nvlpp5r0000gn/T//ccGAufxj.ltrans7.ltrans.o
                                                  /var/folders/_f/jzb7lsz153bclt069nvlpp5r0000gn/T//ccGAufxj.ltrans6.ltrans.o
                                                  /var/folders/_f/jzb7lsz153bclt069nvlpp5r0000gn/T//ccGAufxj.ltrans5.ltrans.o
                                                  /var/folders/_f/jzb7lsz153bclt069nvlpp5r0000gn/T//ccGAufxj.ltrans1.ltrans.o
                                                  ./build/obj/usbcfg.o (symbol from plugin)
                                                  ./build/obj/sys_time.o (symbol from plugin)
                                                  ./build/obj/button.o (symbol from plugin)
                                                  ./build/obj/chschd.o (symbol from plugin)
                                                  ./build/obj/chvt.o (symbol from plugin)
                                                  ./build/obj/chsys.o (symbol from plugin)
                                                  ./build/obj/hal_st_lld.o (symbol from plugin)
                                                  ./build/obj/hal_usb_lld.o (symbol from plugin)
                                                  ./build/obj/hal_dac_lld.o (symbol from plugin)
                                                  ./build/obj/hal_usb.o (symbol from plugin)
                                                  ./build/obj/hal_serial_usb.o (symbol from plugin)
_dbg_check_suspend                                ./build/obj/chdebug.o (symbol from plugin)
_dbg_check_unlock                                 /var/folders/_f/jzb7lsz153bclt069nvlpp5r0000gn/T//ccGAufxj.ltrans4.ltrans.o
                                                  ./build/obj/chdebug.o (symbol from plugin)
                                                  /var/folders/_f/jzb7lsz153bclt069nvlpp5r0000gn/T//ccGAufxj.ltrans8.ltrans.o
                                                  /var/folders/_f/jzb7lsz153bclt069nvlpp5r0000gn/T//ccGAufxj.ltrans7.ltrans.o
                                                  /var/folders/_f/jzb7lsz153bclt069nvlpp5r0000gn/T//ccGAufxj.ltrans5.ltrans.o
                                                  /var/folders/_f/jzb7lsz153bclt069nvlpp5r0000gn/T//ccGAufxj.ltrans1.ltrans.o
                                                  /var/folders/_f/jzb7lsz153bclt069nvlpp5r0000gn/T//ccGAufxj.ltrans0.ltrans.o
                                                  ./build/obj/svm_chibios.o (symbol from plugin)
                                                  ./build/obj/sys_time.o (symbol from plugin)
                                                  ./build/obj/chdelegates.o (symbol from plugin)
                                                  ./build/obj/chobjcaches.o (symbol from plugin)
                                                  ./build/obj/chpipes.o (symbol from plugin)
                                                  ./build/obj/chmempools.o (symbol from plugin)
                                                  ./build/obj/chmemcore.o (symbol from plugin)
                                                  ./build/obj/chmboxes.o (symbol from plugin)
                                                  ./build/obj/chdynamic.o (symbol from plugin)
                                                  ./build/obj/chmsg.o (symbol from plugin)
                                                  ./build/obj/chevents.o (symbol from plugin)
                                                  ./build/obj/chcond.o (symbol from plugin)
                                                  ./build/obj/chmtx.o (symbol from plugin)
                                                  ./build/obj/chsem.o (symbol from plugin)
                                                  ./build/obj/chregistry.o (symbol from plugin)
                                                  ./build/obj/chthreads.o (symbol from plugin)
                                                  ./build/obj/chtrace.o (symbol from plugin)
                                                  ./build/obj/chsys.o (symbol from plugin)
                                                  ./build/obj/stm32_dma.o (symbol from plugin)
                                                  ./build/obj/hal_usb.o (symbol from plugin)
                                                  ./build/obj/hal_serial_usb.o (symbol from plugin)
                                                  ./build/obj/hal_dac.o (symbol from plugin)
                                                  ./build/obj/hal_queues.o (symbol from plugin)
                                                  ./build/obj/hal_buffers.o (symbol from plugin)
                                                  ./build/obj/chcoreasm_v7m.o
_dbg_check_unlock_from_isr                        /var/folders/_f/jzb7lsz153bclt069nvlpp5r0000gn/T//ccGAufxj.ltrans4.ltrans.o
                                                  ./build/obj/chdebug.o (symbol from plugin)
                                                  /var/folders/_f/jzb7lsz153bclt069nvlpp5r0000gn/T//ccGAufxj.ltrans7.ltrans.o
                                                  /var/folders/_f/jzb7lsz153bclt069nvlpp5r0000gn/T//ccGAufxj.ltrans6.ltrans.o
                                                  /var/folders/_f/jzb7lsz153bclt069nvlpp5r0000gn/T//ccGAufxj.ltrans5.ltrans.o
                                                  /var/folders/_f/jzb7lsz153bclt069nvlpp5r0000gn/T//ccGAufxj.ltrans1.ltrans.o
                                                  ./build/obj/usbcfg.o (symbol from plugin)
                                                  ./build/obj/sys_time.o (symbol from plugin)
                                                  ./build/obj/button.o (symbol from plugin)
                                                  ./build/obj/chschd.o (symbol from plugin)
                                                  ./build/obj/chvt.o (symbol from plugin)
                                                  ./build/obj/chsys.o (symbol from plugin)
                                                  ./build/obj/hal_st_lld.o (symbol from plugin)
                                                  ./build/obj/hal_usb_lld.o (symbol from plugin)
                                                  ./build/obj/hal_dac_lld.o (symbol from plugin)
                                                  ./build/obj/hal_usb.o (symbol from plugin)
                                                  ./build/obj/hal_serial_usb.o (symbol from plugin)
_dtoa_r                                           /usr/local/Cellar/gcc-arm-none-eabi-49/20150925/bin/../lib/gcc/arm-none-eabi/4.9.3/../../../../arm-none-eabi/lib/armv7e-m/fpu/libg.a(lib_a-dtoa.o)
                                                  /usr/local/Cellar/gcc-arm-none-eabi-49/20150925/bin/../lib/gcc/arm-none-eabi/4.9.3/../../../../arm-none-eabi/lib/armv7e-m/fpu/libg.a(lib_a-svfprintf.o)
_exit                                             /var/folders/_f/jzb7lsz153bclt069nvlpp5r0000gn/T//ccGAufxj.ltrans8.ltrans.o
                                                  ./build/obj/syscalls.o (symbol from plugin)
_factory_init                                     ./build/obj/chfactory.o (symbol from plugin)
                                                  ./build/obj/chsys.o (symbol from plugin)
_free_r                                           /usr/local/Cellar/gcc-arm-none-eabi-49/20150925/bin/../lib/gcc/arm-none-eabi/4.9.3/../../../../arm-none-eabi/lib/armv7e-m/fpu/libg.a(lib_a-freer.o)
                                                  /usr/local/Cellar/gcc-arm-none-eabi-49/20150925/bin/../lib/gcc/arm-none-eabi/4.9.3/../../../../arm-none-eabi/lib/armv7e-m/fpu/libg.a(lib_a-reallocr.o)
                                                  /usr/local/Cellar/gcc-arm-none-eabi-49/20150925/bin/../lib/gcc/arm-none-eabi/4.9.3/../../../../arm-none-eabi/lib/armv7e-m/fpu/libg.a(lib_a-svfiprintf.o)
                                                  /usr/local/Cellar/gcc-arm-none-eabi-49/20150925/bin/../lib/gcc/arm-none-eabi/4.9.3/../../../../arm-none-eabi/lib/armv7e-m/fpu/libg.a(lib_a-mallocr.o)
_fstat_r                                          /var/folders/_f/jzb7lsz153bclt069nvlpp5r0000gn/T//ccGAufxj.ltrans8.ltrans.o
                                                  ./build/obj/syscalls.o (symbol from plugin)
_get.lto_priv.86                                  /var/folders/_f/jzb7lsz153bclt069nvlpp5r0000gn/T//ccGAufxj.ltrans7.ltrans.o
                                                  /var/folders/_f/jzb7lsz153bclt069nvlpp5r0000gn/T//ccGAufxj.ltrans0.ltrans.o
_getpid                                           /var/folders/_f/jzb7lsz153bclt069nvlpp5r0000gn/T//ccGAufxj.ltrans8.ltrans.o
                                                  ./build/obj/syscalls.o (symbol from plugin)
_gett.lto_priv.88                                 /var/folders/_f/jzb7lsz153bclt069nvlpp5r0000gn/T//ccGAufxj.ltrans7.ltrans.o
                                                  /var/folders/_f/jzb7lsz153bclt069nvlpp5r0000gn/T//ccGAufxj.ltrans0.ltrans.o
_global_impure_ptr                                /usr/local/Cellar/gcc-arm-none-eabi-49/20150925/bin/../lib/gcc/arm-none-eabi/4.9.3/../../../../arm-none-eabi/lib/armv7e-m/fpu/libg.a(lib_a-impure.o)
_heap_init                                        ./build/obj/chmemheaps.o (symbol from plugin)
                                                  ./build/obj/chsys.o (symbol from plugin)
_idle_thread.lto_priv.92                          /var/folders/_f/jzb7lsz153bclt069nvlpp5r0000gn/T//ccGAufxj.ltrans4.ltrans.o
                                                  /var/folders/_f/jzb7lsz153bclt069nvlpp5r0000gn/T//ccGAufxj.ltrans0.ltrans.o
_impure_ptr                                       /usr/local/Cellar/gcc-arm-none-eabi-49/20150925/bin/../lib/gcc/arm-none-eabi/4.9.3/../../../../arm-none-eabi/lib/armv7e-m/fpu/libg.a(lib_a-impure.o)
                                                  /usr/local/Cellar/gcc-arm-none-eabi-49/20150925/bin/../lib/gcc/arm-none-eabi/4.9.3/../../../../arm-none-eabi/lib/armv7e-m/fpu/libg.a(lib_a-locale.o)
                                                  /usr/local/Cellar/gcc-arm-none-eabi-49/20150925/bin/../lib/gcc/arm-none-eabi/4.9.3/../../../../arm-none-eabi/lib/armv7e-m/fpu/libg.a(lib_a-vsnprintf.o)
_isatty_r                                         /var/folders/_f/jzb7lsz153bclt069nvlpp5r0000gn/T//ccGAufxj.ltrans8.ltrans.o
                                                  ./build/obj/syscalls.o (symbol from plugin)
_kill                                             /var/folders/_f/jzb7lsz153bclt069nvlpp5r0000gn/T//ccGAufxj.ltrans8.ltrans.o
                                                  ./build/obj/syscalls.o (symbol from plugin)
_localeconv_r                                     /usr/local/Cellar/gcc-arm-none-eabi-49/20150925/bin/../lib/gcc/arm-none-eabi/4.9.3/../../../../arm-none-eabi/lib/armv7e-m/fpu/libg.a(lib_a-locale.o)
                                                  /usr/local/Cellar/gcc-arm-none-eabi-49/20150925/bin/../lib/gcc/arm-none-eabi/4.9.3/../../../../arm-none-eabi/lib/armv7e-m/fpu/libg.a(lib_a-svfprintf.o)
_lseek_r                                          /var/folders/_f/jzb7lsz153bclt069nvlpp5r0000gn/T//ccGAufxj.ltrans8.ltrans.o
                                                  ./build/obj/syscalls.o (symbol from plugin)
_malloc_r                                         /usr/local/Cellar/gcc-arm-none-eabi-49/20150925/bin/../lib/gcc/arm-none-eabi/4.9.3/../../../../arm-none-eabi/lib/armv7e-m/fpu/libg.a(lib_a-mallocr.o)
                                                  /usr/local/Cellar/gcc-arm-none-eabi-49/20150925/bin/../lib/gcc/arm-none-eabi/4.9.3/../../../../arm-none-eabi/lib/armv7e-m/fpu/libg.a(lib_a-reallocr.o)
                                                  /usr/local/Cellar/gcc-arm-none-eabi-49/20150925/bin/../lib/gcc/arm-none-eabi/4.9.3/../../../../arm-none-eabi/lib/armv7e-m/fpu/libg.a(lib_a-callocr.o)
                                                  /usr/local/Cellar/gcc-arm-none-eabi-49/20150925/bin/../lib/gcc/arm-none-eabi/4.9.3/../../../../arm-none-eabi/lib/armv7e-m/fpu/libg.a(lib_a-svfiprintf.o)
                                                  /usr/local/Cellar/gcc-arm-none-eabi-49/20150925/bin/../lib/gcc/arm-none-eabi/4.9.3/../../../../arm-none-eabi/lib/armv7e-m/fpu/libg.a(lib_a-svfprintf.o)
_malloc_trim_r                                    /usr/local/Cellar/gcc-arm-none-eabi-49/20150925/bin/../lib/gcc/arm-none-eabi/4.9.3/../../../../arm-none-eabi/lib/armv7e-m/fpu/libg.a(lib_a-freer.o)
_mprec_log10                                      /usr/local/Cellar/gcc-arm-none-eabi-49/20150925/bin/../lib/gcc/arm-none-eabi/4.9.3/../../../../arm-none-eabi/lib/armv7e-m/fpu/libg.a(lib_a-mprec.o)
_pal_events                                       /var/folders/_f/jzb7lsz153bclt069nvlpp5r0000gn/T//ccGAufxj.ltrans0.ltrans.o
                                                  ./build/obj/hal_pal_lld.o (symbol from plugin)
                                                  /var/folders/_f/jzb7lsz153bclt069nvlpp5r0000gn/T//ccGAufxj.ltrans6.ltrans.o
                                                  ./build/obj/stm32_isr.o (symbol from plugin)
                                                  ./build/obj/hal_pal.o (symbol from plugin)
_pal_lld_disablepadevent                          ./build/obj/hal_pal_lld.o (symbol from plugin)
_pal_lld_enablepadevent                           ./build/obj/hal_pal_lld.o (symbol from plugin)
_pal_lld_init                                     ./build/obj/hal_pal_lld.o (symbol from plugin)
                                                  ./build/obj/hal.o (symbol from plugin)
_pal_lld_setgroupmode                             ./build/obj/hal_pal_lld.o (symbol from plugin)
                                                  ./build/obj/VMC.o (symbol from plugin)
                                                  ./build/obj/hal_pal.o (symbol from plugin)
_port_exit_from_isr                               ./build/obj/chcoreasm_v7m.o
                                                  /var/folders/_f/jzb7lsz153bclt069nvlpp5r0000gn/T//ccGAufxj.ltrans1.ltrans.o
                                                  ./build/obj/chcore_v7m.o (symbol from plugin)
_port_irq_epilogue                                /var/folders/_f/jzb7lsz153bclt069nvlpp5r0000gn/T//ccGAufxj.ltrans1.ltrans.o
                                                  ./build/obj/chcore_v7m.o (symbol from plugin)
                                                  /var/folders/_f/jzb7lsz153bclt069nvlpp5r0000gn/T//ccGAufxj.ltrans6.ltrans.o
                                                  /var/folders/_f/jzb7lsz153bclt069nvlpp5r0000gn/T//ccGAufxj.ltrans5.ltrans.o
                                                  /var/folders/_f/jzb7lsz153bclt069nvlpp5r0000gn/T//ccGAufxj.ltrans4.ltrans.o
                                                  ./build/obj/sys_time.o (symbol from plugin)
                                                  ./build/obj/hal_st_lld.o (symbol from plugin)
                                                  ./build/obj/hal_usb_lld.o (symbol from plugin)
                                                  ./build/obj/stm32_dma.o (symbol from plugin)
                                                  ./build/obj/stm32_isr.o (symbol from plugin)
_port_switch                                      ./build/obj/chcoreasm_v7m.o
                                                  /var/folders/_f/jzb7lsz153bclt069nvlpp5r0000gn/T//ccGAufxj.ltrans8.ltrans.o
                                                  /var/folders/_f/jzb7lsz153bclt069nvlpp5r0000gn/T//ccGAufxj.ltrans1.ltrans.o
                                                  ./build/obj/chschd.o (symbol from plugin)
_port_switch_from_isr                             ./build/obj/chcoreasm_v7m.o
                                                  /var/folders/_f/jzb7lsz153bclt069nvlpp5r0000gn/T//ccGAufxj.ltrans1.ltrans.o
                                                  ./build/obj/chcore_v7m.o (symbol from plugin)
_port_thread_start                                ./build/obj/chcoreasm_v7m.o
                                                  /var/folders/_f/jzb7lsz153bclt069nvlpp5r0000gn/T//ccGAufxj.ltrans0.ltrans.o
                                                  ./build/obj/chthreads.o (symbol from plugin)
_put.lto_priv.85                                  /var/folders/_f/jzb7lsz153bclt069nvlpp5r0000gn/T//ccGAufxj.ltrans7.ltrans.o
                                                  /var/folders/_f/jzb7lsz153bclt069nvlpp5r0000gn/T//ccGAufxj.ltrans0.ltrans.o
_putt.lto_priv.87                                 /var/folders/_f/jzb7lsz153bclt069nvlpp5r0000gn/T//ccGAufxj.ltrans7.ltrans.o
                                                  /var/folders/_f/jzb7lsz153bclt069nvlpp5r0000gn/T//ccGAufxj.ltrans0.ltrans.o
_read.lto_priv.84                                 /var/folders/_f/jzb7lsz153bclt069nvlpp5r0000gn/T//ccGAufxj.ltrans7.ltrans.o
                                                  /var/folders/_f/jzb7lsz153bclt069nvlpp5r0000gn/T//ccGAufxj.ltrans0.ltrans.o
_read_r                                           /var/folders/_f/jzb7lsz153bclt069nvlpp5r0000gn/T//ccGAufxj.ltrans8.ltrans.o
                                                  ./build/obj/syscalls.o (symbol from plugin)
_readt.lto_priv.90                                /var/folders/_f/jzb7lsz153bclt069nvlpp5r0000gn/T//ccGAufxj.ltrans7.ltrans.o
                                                  /var/folders/_f/jzb7lsz153bclt069nvlpp5r0000gn/T//ccGAufxj.ltrans0.ltrans.o
_realloc_r                                        /usr/local/Cellar/gcc-arm-none-eabi-49/20150925/bin/../lib/gcc/arm-none-eabi/4.9.3/../../../../arm-none-eabi/lib/armv7e-m/fpu/libg.a(lib_a-reallocr.o)
                                                  /usr/local/Cellar/gcc-arm-none-eabi-49/20150925/bin/../lib/gcc/arm-none-eabi/4.9.3/../../../../arm-none-eabi/lib/armv7e-m/fpu/libg.a(lib_a-svfiprintf.o)
_sbrk_r                                           /var/folders/_f/jzb7lsz153bclt069nvlpp5r0000gn/T//ccGAufxj.ltrans8.ltrans.o
                                                  ./build/obj/syscalls.o (symbol from plugin)
                                                  /usr/local/Cellar/gcc-arm-none-eabi-49/20150925/bin/../lib/gcc/arm-none-eabi/4.9.3/../../../../arm-none-eabi/lib/armv7e-m/fpu/libg.a(lib_a-freer.o)
                                                  /usr/local/Cellar/gcc-arm-none-eabi-49/20150925/bin/../lib/gcc/arm-none-eabi/4.9.3/../../../../arm-none-eabi/lib/armv7e-m/fpu/libg.a(lib_a-mallocr.o)
_scheduler_init                                   ./build/obj/chschd.o (symbol from plugin)
                                                  ./build/obj/chsys.o (symbol from plugin)
_setlocale_r                                      /usr/local/Cellar/gcc-arm-none-eabi-49/20150925/bin/../lib/gcc/arm-none-eabi/4.9.3/../../../../arm-none-eabi/lib/armv7e-m/fpu/libg.a(lib_a-locale.o)
_stm32_dma_streams                                ./build/obj/stm32_dma.o (symbol from plugin)
_svfiprintf_r                                     /usr/local/Cellar/gcc-arm-none-eabi-49/20150925/bin/../lib/gcc/arm-none-eabi/4.9.3/../../../../arm-none-eabi/lib/armv7e-m/fpu/libg.a(lib_a-svfiprintf.o)
_svfprintf_r                                      /usr/local/Cellar/gcc-arm-none-eabi-49/20150925/bin/../lib/gcc/arm-none-eabi/4.9.3/../../../../arm-none-eabi/lib/armv7e-m/fpu/libg.a(lib_a-svfprintf.o)
                                                  /usr/local/Cellar/gcc-arm-none-eabi-49/20150925/bin/../lib/gcc/arm-none-eabi/4.9.3/../../../../arm-none-eabi/lib/armv7e-m/fpu/libg.a(lib_a-vsnprintf.o)
_thread_init                                      ./build/obj/chthreads.o (symbol from plugin)
                                                  ./build/obj/chsys.o (symbol from plugin)
_thread_memfill                                   ./build/obj/chthreads.o (symbol from plugin)
                                                  ./build/obj/chdynamic.o (symbol from plugin)
_tm_init                                          ./build/obj/chtm.o (symbol from plugin)
                                                  ./build/obj/chsys.o (symbol from plugin)
_trace_halt                                       ./build/obj/chtrace.o (symbol from plugin)
                                                  ./build/obj/chsys.o (symbol from plugin)
_trace_init                                       ./build/obj/chtrace.o (symbol from plugin)
                                                  ./build/obj/chsys.o (symbol from plugin)
_trace_isr_enter                                  /var/folders/_f/jzb7lsz153bclt069nvlpp5r0000gn/T//ccGAufxj.ltrans1.ltrans.o
                                                  ./build/obj/chtrace.o (symbol from plugin)
                                                  /var/folders/_f/jzb7lsz153bclt069nvlpp5r0000gn/T//ccGAufxj.ltrans6.ltrans.o
                                                  /var/folders/_f/jzb7lsz153bclt069nvlpp5r0000gn/T//ccGAufxj.ltrans5.ltrans.o
                                                  /var/folders/_f/jzb7lsz153bclt069nvlpp5r0000gn/T//ccGAufxj.ltrans4.ltrans.o
                                                  ./build/obj/sys_time.o (symbol from plugin)
                                                  ./build/obj/hal_st_lld.o (symbol from plugin)
                                                  ./build/obj/hal_usb_lld.o (symbol from plugin)
                                                  ./build/obj/stm32_dma.o (symbol from plugin)
                                                  ./build/obj/stm32_isr.o (symbol from plugin)
_trace_isr_leave                                  /var/folders/_f/jzb7lsz153bclt069nvlpp5r0000gn/T//ccGAufxj.ltrans1.ltrans.o
                                                  ./build/obj/chtrace.o (symbol from plugin)
                                                  /var/folders/_f/jzb7lsz153bclt069nvlpp5r0000gn/T//ccGAufxj.ltrans6.ltrans.o
                                                  /var/folders/_f/jzb7lsz153bclt069nvlpp5r0000gn/T//ccGAufxj.ltrans5.ltrans.o
                                                  /var/folders/_f/jzb7lsz153bclt069nvlpp5r0000gn/T//ccGAufxj.ltrans4.ltrans.o
                                                  ./build/obj/sys_time.o (symbol from plugin)
                                                  ./build/obj/hal_st_lld.o (symbol from plugin)
                                                  ./build/obj/hal_usb_lld.o (symbol from plugin)
                                                  ./build/obj/stm32_dma.o (symbol from plugin)
                                                  ./build/obj/stm32_isr.o (symbol from plugin)
_trace_switch                                     /var/folders/_f/jzb7lsz153bclt069nvlpp5r0000gn/T//ccGAufxj.ltrans1.ltrans.o
                                                  ./build/obj/chtrace.o (symbol from plugin)
                                                  /var/folders/_f/jzb7lsz153bclt069nvlpp5r0000gn/T//ccGAufxj.ltrans8.ltrans.o
                                                  ./build/obj/chschd.o (symbol from plugin)
_unhandled_exception                              ./build/obj/vectors.o
_usb_ep0in                                        /var/folders/_f/jzb7lsz153bclt069nvlpp5r0000gn/T//ccGAufxj.ltrans6.ltrans.o
                                                  ./build/obj/hal_usb.o (symbol from plugin)
                                                  /var/folders/_f/jzb7lsz153bclt069nvlpp5r0000gn/T//ccGAufxj.ltrans4.ltrans.o
                                                  ./build/obj/hal_usb_lld.o (symbol from plugin)
_usb_ep0out                                       /var/folders/_f/jzb7lsz153bclt069nvlpp5r0000gn/T//ccGAufxj.ltrans6.ltrans.o
                                                  ./build/obj/hal_usb.o (symbol from plugin)
                                                  /var/folders/_f/jzb7lsz153bclt069nvlpp5r0000gn/T//ccGAufxj.ltrans4.ltrans.o
                                                  ./build/obj/hal_usb_lld.o (symbol from plugin)
_usb_ep0setup                                     /var/folders/_f/jzb7lsz153bclt069nvlpp5r0000gn/T//ccGAufxj.ltrans6.ltrans.o
                                                  ./build/obj/hal_usb.o (symbol from plugin)
                                                  /var/folders/_f/jzb7lsz153bclt069nvlpp5r0000gn/T//ccGAufxj.ltrans4.ltrans.o
                                                  ./build/obj/hal_usb_lld.o (symbol from plugin)
_usb_reset                                        ./build/obj/hal_usb.o (symbol from plugin)
                                                  ./build/obj/hal_usb_lld.o (symbol from plugin)
_usb_suspend                                      ./build/obj/hal_usb.o (symbol from plugin)
                                                  ./build/obj/hal_usb_lld.o (symbol from plugin)
_usb_wakeup                                       ./build/obj/hal_usb.o (symbol from plugin)
                                                  ./build/obj/hal_usb_lld.o (symbol from plugin)
_vectors                                          ./build/obj/vectors.o
                                                  ./build/obj/crt0_v7m.o
_vsnprintf_r                                      /usr/local/Cellar/gcc-arm-none-eabi-49/20150925/bin/../lib/gcc/arm-none-eabi/4.9.3/../../../../arm-none-eabi/lib/armv7e-m/fpu/libg.a(lib_a-vsnprintf.o)
_vt_init                                          ./build/obj/chvt.o (symbol from plugin)
                                                  ./build/obj/chsys.o (symbol from plugin)
_write.lto_priv.83                                /var/folders/_f/jzb7lsz153bclt069nvlpp5r0000gn/T//ccGAufxj.ltrans7.ltrans.o
                                                  /var/folders/_f/jzb7lsz153bclt069nvlpp5r0000gn/T//ccGAufxj.ltrans0.ltrans.o
_write_r                                          /var/folders/_f/jzb7lsz153bclt069nvlpp5r0000gn/T//ccGAufxj.ltrans8.ltrans.o
                                                  ./build/obj/syscalls.o (symbol from plugin)
_writet.lto_priv.89                               /var/folders/_f/jzb7lsz153bclt069nvlpp5r0000gn/T//ccGAufxj.ltrans7.ltrans.o
                                                  /var/folders/_f/jzb7lsz153bclt069nvlpp5r0000gn/T//ccGAufxj.ltrans0.ltrans.o
alarm.lto_priv.99                                 /var/folders/_f/jzb7lsz153bclt069nvlpp5r0000gn/T//ccGAufxj.ltrans0.ltrans.o
                                                  /var/folders/_f/jzb7lsz153bclt069nvlpp5r0000gn/T//ccGAufxj.ltrans9.ltrans.o
                                                  /var/folders/_f/jzb7lsz153bclt069nvlpp5r0000gn/T//ccGAufxj.ltrans5.ltrans.o
boardInit                                         ./build/obj/board.o (symbol from plugin)
                                                  ./build/obj/hal.o (symbol from plugin)
buf                                               ./build/obj/svm_chibios_main.o (symbol from plugin)
button_cb                                         ./build/obj/button.o (symbol from plugin)
ch                                                /var/folders/_f/jzb7lsz153bclt069nvlpp5r0000gn/T//ccGAufxj.ltrans8.ltrans.o
                                                  ./build/obj/chschd.o (symbol from plugin)
                                                  /var/folders/_f/jzb7lsz153bclt069nvlpp5r0000gn/T//ccGAufxj.ltrans7.ltrans.o
                                                  /var/folders/_f/jzb7lsz153bclt069nvlpp5r0000gn/T//ccGAufxj.ltrans5.ltrans.o
                                                  /var/folders/_f/jzb7lsz153bclt069nvlpp5r0000gn/T//ccGAufxj.ltrans4.ltrans.o
                                                  /var/folders/_f/jzb7lsz153bclt069nvlpp5r0000gn/T//ccGAufxj.ltrans1.ltrans.o
                                                  /var/folders/_f/jzb7lsz153bclt069nvlpp5r0000gn/T//ccGAufxj.ltrans0.ltrans.o
                                                  ./build/obj/svm_chibios.o (symbol from plugin)
                                                  ./build/obj/sys_time.o (symbol from plugin)
                                                  ./build/obj/chdelegates.o (symbol from plugin)
                                                  ./build/obj/chobjcaches.o (symbol from plugin)
                                                  ./build/obj/chpipes.o (symbol from plugin)
                                                  ./build/obj/chmempools.o (symbol from plugin)
                                                  ./build/obj/chmemcore.o (symbol from plugin)
                                                  ./build/obj/chmboxes.o (symbol from plugin)
                                                  ./build/obj/chdynamic.o (symbol from plugin)
                                                  ./build/obj/chmsg.o (symbol from plugin)
                                                  ./build/obj/chevents.o (symbol from plugin)
                                                  ./build/obj/chcond.o (symbol from plugin)
                                                  ./build/obj/chmtx.o (symbol from plugin)
                                                  ./build/obj/chsem.o (symbol from plugin)
                                                  ./build/obj/chregistry.o (symbol from plugin)
                                                  ./build/obj/chtm.o (symbol from plugin)
                                                  ./build/obj/chthreads.o (symbol from plugin)
                                                  ./build/obj/chvt.o (symbol from plugin)
                                                  ./build/obj/chtrace.o (symbol from plugin)
                                                  ./build/obj/chdebug.o (symbol from plugin)
                                                  ./build/obj/chsys.o (symbol from plugin)
                                                  ./build/obj/stm32_dma.o (symbol from plugin)
                                                  ./build/obj/hal_usb.o (symbol from plugin)
                                                  ./build/obj/hal_serial_usb.o (symbol from plugin)
                                                  ./build/obj/hal_dac.o (symbol from plugin)
                                                  ./build/obj/hal_queues.o (symbol from plugin)
                                                  ./build/obj/hal_buffers.o (symbol from plugin)
chCacheGetObject                                  ./build/obj/chobjcaches.o (symbol from plugin)
chCacheObjectInit                                 ./build/obj/chobjcaches.o (symbol from plugin)
chCacheReadObject                                 ./build/obj/chobjcaches.o (symbol from plugin)
chCacheReleaseObjectI                             ./build/obj/chobjcaches.o (symbol from plugin)
chCacheWriteObject                                ./build/obj/chobjcaches.o (symbol from plugin)
chCondBroadcast                                   ./build/obj/chcond.o (symbol from plugin)
chCondBroadcastI                                  ./build/obj/chcond.o (symbol from plugin)
chCondObjectInit                                  ./build/obj/chcond.o (symbol from plugin)
chCondSignal                                      ./build/obj/chcond.o (symbol from plugin)
chCondSignalI                                     ./build/obj/chcond.o (symbol from plugin)
chCondWait                                        ./build/obj/chcond.o (symbol from plugin)
chCondWaitS                                       ./build/obj/chcond.o (symbol from plugin)
chCondWaitTimeout                                 ./build/obj/chcond.o (symbol from plugin)
chCondWaitTimeoutS                                ./build/obj/chcond.o (symbol from plugin)
chCoreAllocAlignedI.lto_priv.79                   /var/folders/_f/jzb7lsz153bclt069nvlpp5r0000gn/T//ccGAufxj.ltrans1.ltrans.o
                                                  /var/folders/_f/jzb7lsz153bclt069nvlpp5r0000gn/T//ccGAufxj.ltrans0.ltrans.o
chCoreAllocFromBase                               ./build/obj/chmemcore.o (symbol from plugin)
                                                  ./build/obj/syscalls.o (symbol from plugin)
chCoreAllocFromBaseI                              ./build/obj/chmemcore.o (symbol from plugin)
chCoreAllocFromTop                                /var/folders/_f/jzb7lsz153bclt069nvlpp5r0000gn/T//ccGAufxj.ltrans1.ltrans.o
                                                  ./build/obj/chmemcore.o (symbol from plugin)
                                                  /var/folders/_f/jzb7lsz153bclt069nvlpp5r0000gn/T//ccGAufxj.ltrans0.ltrans.o
                                                  ./build/obj/chmemheaps.o (symbol from plugin)
chCoreAllocFromTopI                               ./build/obj/chmemcore.o (symbol from plugin)
                                                  ./build/obj/chfactory.o (symbol from plugin)
chCoreGetStatusX                                  ./build/obj/chmemcore.o (symbol from plugin)
chDbgCheckClassI                                  /var/folders/_f/jzb7lsz153bclt069nvlpp5r0000gn/T//ccGAufxj.ltrans1.ltrans.o
                                                  ./build/obj/chdebug.o (symbol from plugin)
                                                  /var/folders/_f/jzb7lsz153bclt069nvlpp5r0000gn/T//ccGAufxj.ltrans8.ltrans.o
                                                  /var/folders/_f/jzb7lsz153bclt069nvlpp5r0000gn/T//ccGAufxj.ltrans7.ltrans.o
                                                  /var/folders/_f/jzb7lsz153bclt069nvlpp5r0000gn/T//ccGAufxj.ltrans6.ltrans.o
                                                  /var/folders/_f/jzb7lsz153bclt069nvlpp5r0000gn/T//ccGAufxj.ltrans5.ltrans.o
                                                  /var/folders/_f/jzb7lsz153bclt069nvlpp5r0000gn/T//ccGAufxj.ltrans4.ltrans.o
                                                  /var/folders/_f/jzb7lsz153bclt069nvlpp5r0000gn/T//ccGAufxj.ltrans0.ltrans.o
                                                  ./build/obj/svm_chibios.o (symbol from plugin)
                                                  ./build/obj/chobjcaches.o (symbol from plugin)
                                                  ./build/obj/chmempools.o (symbol from plugin)
                                                  ./build/obj/chmemcore.o (symbol from plugin)
                                                  ./build/obj/chmboxes.o (symbol from plugin)
                                                  ./build/obj/chmsg.o (symbol from plugin)
                                                  ./build/obj/chevents.o (symbol from plugin)
                                                  ./build/obj/chcond.o (symbol from plugin)
                                                  ./build/obj/chsem.o (symbol from plugin)
                                                  ./build/obj/chthreads.o (symbol from plugin)
                                                  ./build/obj/chschd.o (symbol from plugin)
                                                  ./build/obj/chvt.o (symbol from plugin)
                                                  ./build/obj/chtrace.o (symbol from plugin)
                                                  ./build/obj/chsys.o (symbol from plugin)
                                                  ./build/obj/stm32_dma.o (symbol from plugin)
                                                  ./build/obj/hal_usb.o (symbol from plugin)
                                                  ./build/obj/hal_dac.o (symbol from plugin)
                                                  ./build/obj/hal_queues.o (symbol from plugin)
                                                  ./build/obj/hal_buffers.o (symbol from plugin)
chDbgCheckClassS                                  /var/folders/_f/jzb7lsz153bclt069nvlpp5r0000gn/T//ccGAufxj.ltrans1.ltrans.o
                                                  ./build/obj/chdebug.o (symbol from plugin)
                                                  /var/folders/_f/jzb7lsz153bclt069nvlpp5r0000gn/T//ccGAufxj.ltrans8.ltrans.o
                                                  /var/folders/_f/jzb7lsz153bclt069nvlpp5r0000gn/T//ccGAufxj.ltrans7.ltrans.o
                                                  /var/folders/_f/jzb7lsz153bclt069nvlpp5r0000gn/T//ccGAufxj.ltrans5.ltrans.o
                                                  ./build/obj/chmboxes.o (symbol from plugin)
                                                  ./build/obj/chmsg.o (symbol from plugin)
                                                  ./build/obj/chcond.o (symbol from plugin)
                                                  ./build/obj/chmtx.o (symbol from plugin)
                                                  ./build/obj/chsem.o (symbol from plugin)
                                                  ./build/obj/chthreads.o (symbol from plugin)
                                                  ./build/obj/chschd.o (symbol from plugin)
                                                  ./build/obj/hal_buffers.o (symbol from plugin)
chDbgResumeTrace                                  ./build/obj/chtrace.o (symbol from plugin)
chDbgResumeTraceI                                 ./build/obj/chtrace.o (symbol from plugin)
chDbgSuspendTrace                                 ./build/obj/chtrace.o (symbol from plugin)
chDbgSuspendTraceI                                ./build/obj/chtrace.o (symbol from plugin)
chDbgWriteTrace                                   ./build/obj/chtrace.o (symbol from plugin)
chDbgWriteTraceI                                  ./build/obj/chtrace.o (symbol from plugin)
chDelegateCallVeneer                              ./build/obj/chdelegates.o (symbol from plugin)
chDelegateDispatch                                ./build/obj/chdelegates.o (symbol from plugin)
chDelegateDispatchTimeout                         ./build/obj/chdelegates.o (symbol from plugin)
chEvtAddEvents                                    ./build/obj/chevents.o (symbol from plugin)
chEvtBroadcastFlags                               ./build/obj/chevents.o (symbol from plugin)
chEvtBroadcastFlagsI                              /var/folders/_f/jzb7lsz153bclt069nvlpp5r0000gn/T//ccGAufxj.ltrans1.ltrans.o
                                                  ./build/obj/chevents.o (symbol from plugin)
                                                  /var/folders/_f/jzb7lsz153bclt069nvlpp5r0000gn/T//ccGAufxj.ltrans7.ltrans.o
                                                  /var/folders/_f/jzb7lsz153bclt069nvlpp5r0000gn/T//ccGAufxj.ltrans5.ltrans.o
                                                  ./build/obj/hal_serial_usb.o (symbol from plugin)
chEvtDispatch                                     ./build/obj/chevents.o (symbol from plugin)
chEvtGetAndClearEvents                            ./build/obj/chevents.o (symbol from plugin)
chEvtGetAndClearEventsI                           ./build/obj/chevents.o (symbol from plugin)
chEvtGetAndClearFlags                             ./build/obj/chevents.o (symbol from plugin)
chEvtGetAndClearFlagsI                            ./build/obj/chevents.o (symbol from plugin)
chEvtRegisterMaskWithFlags                        ./build/obj/chevents.o (symbol from plugin)
chEvtSignal                                       ./build/obj/chevents.o (symbol from plugin)
chEvtSignalI                                      ./build/obj/chevents.o (symbol from plugin)
chEvtUnregister                                   ./build/obj/chevents.o (symbol from plugin)
chEvtWaitAll                                      ./build/obj/chevents.o (symbol from plugin)
chEvtWaitAllTimeout                               ./build/obj/chevents.o (symbol from plugin)
chEvtWaitAny                                      ./build/obj/chevents.o (symbol from plugin)
chEvtWaitAnyTimeout                               ./build/obj/chevents.o (symbol from plugin)
chEvtWaitOne                                      ./build/obj/chevents.o (symbol from plugin)
chEvtWaitOneTimeout                               ./build/obj/chevents.o (symbol from plugin)
chFactoryCreateBuffer                             ./build/obj/chfactory.o (symbol from plugin)
chFactoryCreateMailbox                            ./build/obj/chfactory.o (symbol from plugin)
chFactoryCreateObjectsFIFO                        ./build/obj/chfactory.o (symbol from plugin)
chFactoryCreatePipe                               ./build/obj/chfactory.o (symbol from plugin)
chFactoryCreateSemaphore                          ./build/obj/chfactory.o (symbol from plugin)
chFactoryFindBuffer                               ./build/obj/chfactory.o (symbol from plugin)
chFactoryFindMailbox                              ./build/obj/chfactory.o (symbol from plugin)
chFactoryFindObject                               ./build/obj/chfactory.o (symbol from plugin)
chFactoryFindObjectByPointer                      ./build/obj/chfactory.o (symbol from plugin)
chFactoryFindObjectsFIFO                          ./build/obj/chfactory.o (symbol from plugin)
chFactoryFindPipe                                 ./build/obj/chfactory.o (symbol from plugin)
chFactoryFindSemaphore                            ./build/obj/chfactory.o (symbol from plugin)
chFactoryRegisterObject                           ./build/obj/chfactory.o (symbol from plugin)
chFactoryReleaseBuffer                            ./build/obj/chfactory.o (symbol from plugin)
chFactoryReleaseMailbox                           ./build/obj/chfactory.o (symbol from plugin)
chFactoryReleaseObject                            ./build/obj/chfactory.o (symbol from plugin)
chFactoryReleaseObjectsFIFO                       ./build/obj/chfactory.o (symbol from plugin)
chFactoryReleasePipe                              ./build/obj/chfactory.o (symbol from plugin)
chFactoryReleaseSemaphore                         ./build/obj/chfactory.o (symbol from plugin)
chGuardedPoolAllocTimeout                         ./build/obj/chmempools.o (symbol from plugin)
chGuardedPoolAllocTimeoutS                        ./build/obj/chmempools.o (symbol from plugin)
chGuardedPoolFree                                 ./build/obj/chmempools.o (symbol from plugin)
chGuardedPoolLoadArray                            ./build/obj/chmempools.o (symbol from plugin)
                                                  ./build/obj/chfactory.o (symbol from plugin)
chGuardedPoolObjectInitAligned                    ./build/obj/chmempools.o (symbol from plugin)
                                                  ./build/obj/chfactory.o (symbol from plugin)
chHeapAllocAligned                                ./build/obj/chmemheaps.o (symbol from plugin)
                                                  ./build/obj/chfactory.o (symbol from plugin)
                                                  ./build/obj/chdynamic.o (symbol from plugin)
chHeapFree                                        ./build/obj/chmemheaps.o (symbol from plugin)
                                                  ./build/obj/chfactory.o (symbol from plugin)
                                                  ./build/obj/chthreads.o (symbol from plugin)
chHeapObjectInit                                  ./build/obj/chmemheaps.o (symbol from plugin)
chHeapStatus                                      ./build/obj/chmemheaps.o (symbol from plugin)
chMBFetchI                                        ./build/obj/chmboxes.o (symbol from plugin)
chMBFetchTimeout                                  ./build/obj/chmboxes.o (symbol from plugin)
                                                  ./build/obj/svm_chibios.o (symbol from plugin)
chMBFetchTimeoutS                                 ./build/obj/chmboxes.o (symbol from plugin)
chMBObjectInit                                    ./build/obj/chmboxes.o (symbol from plugin)
                                                  ./build/obj/svm_chibios.o (symbol from plugin)
                                                  ./build/obj/chfactory.o (symbol from plugin)
chMBPostAheadI                                    ./build/obj/chmboxes.o (symbol from plugin)
chMBPostAheadTimeout                              ./build/obj/chmboxes.o (symbol from plugin)
chMBPostAheadTimeoutS                             ./build/obj/chmboxes.o (symbol from plugin)
chMBPostI                                         ./build/obj/chmboxes.o (symbol from plugin)
                                                  ./build/obj/svm_chibios.o (symbol from plugin)
chMBPostTimeout                                   ./build/obj/chmboxes.o (symbol from plugin)
chMBPostTimeoutS                                  ./build/obj/chmboxes.o (symbol from plugin)
chMBReset                                         ./build/obj/chmboxes.o (symbol from plugin)
chMBResetI                                        ./build/obj/chmboxes.o (symbol from plugin)
chMsgPollS                                        ./build/obj/chmsg.o (symbol from plugin)
chMsgRelease                                      ./build/obj/chmsg.o (symbol from plugin)
                                                  ./build/obj/chdelegates.o (symbol from plugin)
chMsgSend                                         ./build/obj/chmsg.o (symbol from plugin)
                                                  ./build/obj/chdelegates.o (symbol from plugin)
chMsgWaitS                                        ./build/obj/chmsg.o (symbol from plugin)
                                                  ./build/obj/chdelegates.o (symbol from plugin)
chMsgWaitTimeoutS                                 ./build/obj/chmsg.o (symbol from plugin)
                                                  ./build/obj/chdelegates.o (symbol from plugin)
chMtxLock                                         ./build/obj/chmtx.o (symbol from plugin)
                                                  ./build/obj/chfactory.o (symbol from plugin)
                                                  ./build/obj/chpipes.o (symbol from plugin)
                                                  ./build/obj/chmemheaps.o (symbol from plugin)
                                                  ./build/obj/hal_dac.o (symbol from plugin)
chMtxLockS                                        ./build/obj/chmtx.o (symbol from plugin)
                                                  ./build/obj/chcond.o (symbol from plugin)
chMtxObjectInit                                   ./build/obj/chmtx.o (symbol from plugin)
                                                  ./build/obj/chfactory.o (symbol from plugin)
                                                  ./build/obj/chpipes.o (symbol from plugin)
                                                  ./build/obj/chmemheaps.o (symbol from plugin)
                                                  ./build/obj/hal_dac.o (symbol from plugin)
chMtxTryLock                                      ./build/obj/chmtx.o (symbol from plugin)
chMtxTryLockS                                     ./build/obj/chmtx.o (symbol from plugin)
chMtxUnlock                                       ./build/obj/chmtx.o (symbol from plugin)
                                                  ./build/obj/chfactory.o (symbol from plugin)
                                                  ./build/obj/chpipes.o (symbol from plugin)
                                                  ./build/obj/chmemheaps.o (symbol from plugin)
                                                  ./build/obj/hal_dac.o (symbol from plugin)
chMtxUnlockAll                                    ./build/obj/chmtx.o (symbol from plugin)
chMtxUnlockAllS                                   ./build/obj/chmtx.o (symbol from plugin)
chMtxUnlockS                                      ./build/obj/chmtx.o (symbol from plugin)
                                                  ./build/obj/chcond.o (symbol from plugin)
chPipeObjectInit                                  ./build/obj/chpipes.o (symbol from plugin)
                                                  ./build/obj/chfactory.o (symbol from plugin)
chPipeReadTimeout                                 ./build/obj/chpipes.o (symbol from plugin)
chPipeReset                                       ./build/obj/chpipes.o (symbol from plugin)
chPipeWriteTimeout                                ./build/obj/chpipes.o (symbol from plugin)
chPoolAlloc                                       ./build/obj/chmempools.o (symbol from plugin)
                                                  ./build/obj/chfactory.o (symbol from plugin)
                                                  ./build/obj/chdynamic.o (symbol from plugin)
chPoolAllocI                                      ./build/obj/chmempools.o (symbol from plugin)
                                                  ./build/obj/svm_chibios.o (symbol from plugin)
chPoolFree                                        /var/folders/_f/jzb7lsz153bclt069nvlpp5r0000gn/T//ccGAufxj.ltrans1.ltrans.o
                                                  ./build/obj/chmempools.o (symbol from plugin)
                                                  /var/folders/_f/jzb7lsz153bclt069nvlpp5r0000gn/T//ccGAufxj.ltrans5.ltrans.o
                                                  /var/folders/_f/jzb7lsz153bclt069nvlpp5r0000gn/T//ccGAufxj.ltrans0.ltrans.o
                                                  ./build/obj/svm_chibios.o (symbol from plugin)
                                                  ./build/obj/chfactory.o (symbol from plugin)
                                                  ./build/obj/chthreads.o (symbol from plugin)
chPoolFreeI                                       ./build/obj/chmempools.o (symbol from plugin)
chPoolLoadArray                                   ./build/obj/chmempools.o (symbol from plugin)
                                                  ./build/obj/svm_chibios.o (symbol from plugin)
chPoolObjectInitAligned                           ./build/obj/chmempools.o (symbol from plugin)
                                                  ./build/obj/chfactory.o (symbol from plugin)
chRegFindThreadByName                             ./build/obj/chregistry.o (symbol from plugin)
chRegFindThreadByPointer                          ./build/obj/chregistry.o (symbol from plugin)
chRegFindThreadByWorkingArea                      /var/folders/_f/jzb7lsz153bclt069nvlpp5r0000gn/T//ccGAufxj.ltrans1.ltrans.o
                                                  ./build/obj/chregistry.o (symbol from plugin)
                                                  /var/folders/_f/jzb7lsz153bclt069nvlpp5r0000gn/T//ccGAufxj.ltrans0.ltrans.o
                                                  ./build/obj/chthreads.o (symbol from plugin)
chRegFirstThread                                  ./build/obj/chregistry.o (symbol from plugin)
chRegNextThread                                   ./build/obj/chregistry.o (symbol from plugin)
chSchDoReschedule                                 /var/folders/_f/jzb7lsz153bclt069nvlpp5r0000gn/T//ccGAufxj.ltrans1.ltrans.o
                                                  ./build/obj/chschd.o (symbol from plugin)
                                                  ./build/obj/chcoreasm_v7m.o
chSchDoRescheduleAhead                            ./build/obj/chschd.o (symbol from plugin)
chSchDoRescheduleBehind                           ./build/obj/chschd.o (symbol from plugin)
                                                  ./build/obj/chthreads.o (symbol from plugin)
chSchGoSleepS                                     ./build/obj/chschd.o (symbol from plugin)
                                                  ./build/obj/chmsg.o (symbol from plugin)
                                                  ./build/obj/chevents.o (symbol from plugin)
                                                  ./build/obj/chcond.o (symbol from plugin)
                                                  ./build/obj/chmtx.o (symbol from plugin)
                                                  ./build/obj/chsem.o (symbol from plugin)
                                                  ./build/obj/chthreads.o (symbol from plugin)
chSchGoSleepTimeoutS                              ./build/obj/chschd.o (symbol from plugin)
                                                  ./build/obj/chmsg.o (symbol from plugin)
                                                  ./build/obj/chevents.o (symbol from plugin)
                                                  ./build/obj/chcond.o (symbol from plugin)
                                                  ./build/obj/chsem.o (symbol from plugin)
                                                  ./build/obj/chthreads.o (symbol from plugin)
chSchIsPreemptionRequired                         ./build/obj/chschd.o (symbol from plugin)
                                                  ./build/obj/chcore_v7m.o (symbol from plugin)
chSchReadyAheadI                                  /var/folders/_f/jzb7lsz153bclt069nvlpp5r0000gn/T//ccGAufxj.ltrans1.ltrans.o
                                                  ./build/obj/chschd.o (symbol from plugin)
                                                  /var/folders/_f/jzb7lsz153bclt069nvlpp5r0000gn/T//ccGAufxj.ltrans8.ltrans.o
chSchReadyI                                       /var/folders/_f/jzb7lsz153bclt069nvlpp5r0000gn/T//ccGAufxj.ltrans1.ltrans.o
                                                  ./build/obj/chschd.o (symbol from plugin)
                                                  /var/folders/_f/jzb7lsz153bclt069nvlpp5r0000gn/T//ccGAufxj.ltrans8.ltrans.o
                                                  ./build/obj/chmsg.o (symbol from plugin)
                                                  ./build/obj/chevents.o (symbol from plugin)
                                                  ./build/obj/chcond.o (symbol from plugin)
                                                  ./build/obj/chmtx.o (symbol from plugin)
                                                  ./build/obj/chsem.o (symbol from plugin)
                                                  ./build/obj/chthreads.o (symbol from plugin)
chSchRescheduleS                                  /var/folders/_f/jzb7lsz153bclt069nvlpp5r0000gn/T//ccGAufxj.ltrans1.ltrans.o
                                                  ./build/obj/chschd.o (symbol from plugin)
                                                  /var/folders/_f/jzb7lsz153bclt069nvlpp5r0000gn/T//ccGAufxj.ltrans5.ltrans.o
                                                  ./build/obj/chpipes.o (symbol from plugin)
                                                  ./build/obj/chmempools.o (symbol from plugin)
                                                  ./build/obj/chmboxes.o (symbol from plugin)
                                                  ./build/obj/chevents.o (symbol from plugin)
                                                  ./build/obj/chcond.o (symbol from plugin)
                                                  ./build/obj/chmtx.o (symbol from plugin)
                                                  ./build/obj/chsem.o (symbol from plugin)
                                                  ./build/obj/chthreads.o (symbol from plugin)
                                                  ./build/obj/chsys.o (symbol from plugin)
                                                  ./build/obj/hal_usb.o (symbol from plugin)
                                                  ./build/obj/hal_serial_usb.o (symbol from plugin)
chSchWakeupS                                      ./build/obj/chschd.o (symbol from plugin)
                                                  ./build/obj/chdynamic.o (symbol from plugin)
                                                  ./build/obj/chmsg.o (symbol from plugin)
                                                  ./build/obj/chcond.o (symbol from plugin)
                                                  ./build/obj/chsem.o (symbol from plugin)
                                                  ./build/obj/chthreads.o (symbol from plugin)
chSchWakeupS.constprop.34                         /var/folders/_f/jzb7lsz153bclt069nvlpp5r0000gn/T//ccGAufxj.ltrans8.ltrans.o
                                                  /var/folders/_f/jzb7lsz153bclt069nvlpp5r0000gn/T//ccGAufxj.ltrans0.ltrans.o
chSemAddCounterI                                  ./build/obj/chsem.o (symbol from plugin)
chSemObjectInit                                   ./build/obj/chsem.o (symbol from plugin)
                                                  ./build/obj/chfactory.o (symbol from plugin)
                                                  ./build/obj/chobjcaches.o (symbol from plugin)
                                                  ./build/obj/chmempools.o (symbol from plugin)
chSemResetWithMessage                             ./build/obj/chsem.o (symbol from plugin)
chSemResetWithMessageI                            ./build/obj/chsem.o (symbol from plugin)
chSemSignal                                       ./build/obj/chsem.o (symbol from plugin)
chSemSignalI                                      ./build/obj/chsem.o (symbol from plugin)
                                                  ./build/obj/chobjcaches.o (symbol from plugin)
                                                  ./build/obj/chmempools.o (symbol from plugin)
chSemSignalWait                                   ./build/obj/chsem.o (symbol from plugin)
chSemWait                                         ./build/obj/chsem.o (symbol from plugin)
chSemWaitS                                        ./build/obj/chsem.o (symbol from plugin)
                                                  ./build/obj/chobjcaches.o (symbol from plugin)
chSemWaitTimeout                                  ./build/obj/chsem.o (symbol from plugin)
chSemWaitTimeoutS                                 ./build/obj/chsem.o (symbol from plugin)
                                                  ./build/obj/chmempools.o (symbol from plugin)
chSysGetStatusAndLockX                            ./build/obj/chsys.o (symbol from plugin)
chSysHalt                                         /var/folders/_f/jzb7lsz153bclt069nvlpp5r0000gn/T//ccGAufxj.ltrans4.ltrans.o
                                                  ./build/obj/chsys.o (symbol from plugin)
                                                  /var/folders/_f/jzb7lsz153bclt069nvlpp5r0000gn/T//ccGAufxj.ltrans8.ltrans.o
                                                  /var/folders/_f/jzb7lsz153bclt069nvlpp5r0000gn/T//ccGAufxj.ltrans7.ltrans.o
                                                  /var/folders/_f/jzb7lsz153bclt069nvlpp5r0000gn/T//ccGAufxj.ltrans6.ltrans.o
                                                  /var/folders/_f/jzb7lsz153bclt069nvlpp5r0000gn/T//ccGAufxj.ltrans5.ltrans.o
                                                  /var/folders/_f/jzb7lsz153bclt069nvlpp5r0000gn/T//ccGAufxj.ltrans1.ltrans.o
                                                  /var/folders/_f/jzb7lsz153bclt069nvlpp5r0000gn/T//ccGAufxj.ltrans0.ltrans.o
                                                  ./build/obj/syscalls.o (symbol from plugin)
                                                  ./build/obj/svm_chibios.o (symbol from plugin)
                                                  ./build/obj/sys_time.o (symbol from plugin)
                                                  ./build/obj/chfactory.o (symbol from plugin)
                                                  ./build/obj/chdelegates.o (symbol from plugin)
                                                  ./build/obj/chobjcaches.o (symbol from plugin)
                                                  ./build/obj/chpipes.o (symbol from plugin)
                                                  ./build/obj/chmempools.o (symbol from plugin)
                                                  ./build/obj/chmemheaps.o (symbol from plugin)
                                                  ./build/obj/chmemcore.o (symbol from plugin)
                                                  ./build/obj/chmboxes.o (symbol from plugin)
                                                  ./build/obj/chdynamic.o (symbol from plugin)
                                                  ./build/obj/chmsg.o (symbol from plugin)
                                                  ./build/obj/chevents.o (symbol from plugin)
                                                  ./build/obj/chcond.o (symbol from plugin)
                                                  ./build/obj/chmtx.o (symbol from plugin)
                                                  ./build/obj/chsem.o (symbol from plugin)
                                                  ./build/obj/chregistry.o (symbol from plugin)
                                                  ./build/obj/chthreads.o (symbol from plugin)
                                                  ./build/obj/chschd.o (symbol from plugin)
                                                  ./build/obj/chvt.o (symbol from plugin)
                                                  ./build/obj/chtrace.o (symbol from plugin)
                                                  ./build/obj/chdebug.o (symbol from plugin)
                                                  ./build/obj/hal_usb_lld.o (symbol from plugin)
                                                  ./build/obj/hal_pal_lld.o (symbol from plugin)
                                                  ./build/obj/stm32_dma.o (symbol from plugin)
                                                  ./build/obj/hal_dac_lld.o (symbol from plugin)
                                                  ./build/obj/nvic.o (symbol from plugin)
                                                  ./build/obj/hal_usb.o (symbol from plugin)
                                                  ./build/obj/hal_serial_usb.o (symbol from plugin)
                                                  ./build/obj/hal_pal.o (symbol from plugin)
                                                  ./build/obj/hal_dac.o (symbol from plugin)
                                                  ./build/obj/hal_flash.o (symbol from plugin)
                                                  ./build/obj/hal_queues.o (symbol from plugin)
                                                  ./build/obj/hal_buffers.o (symbol from plugin)
                                                  ./build/obj/hal_st.o (symbol from plugin)
chSysInit                                         ./build/obj/chsys.o (symbol from plugin)
                                                  ./build/obj/svm_chibios_main.o (symbol from plugin)
chSysIntegrityCheckI                              ./build/obj/chsys.o (symbol from plugin)
chSysIsCounterWithinX                             ./build/obj/chsys.o (symbol from plugin)
chSysPolledDelayX                                 /var/folders/_f/jzb7lsz153bclt069nvlpp5r0000gn/T//ccGAufxj.ltrans4.ltrans.o
                                                  ./build/obj/chsys.o (symbol from plugin)
                                                  /var/folders/_f/jzb7lsz153bclt069nvlpp5r0000gn/T//ccGAufxj.ltrans7.ltrans.o
                                                  /var/folders/_f/jzb7lsz153bclt069nvlpp5r0000gn/T//ccGAufxj.ltrans0.ltrans.o
                                                  ./build/obj/hal_usb_lld.o (symbol from plugin)
chSysRestoreStatusX                               ./build/obj/chsys.o (symbol from plugin)
chSysTimerHandlerI                                ./build/obj/chsys.o (symbol from plugin)
                                                  ./build/obj/hal_st_lld.o (symbol from plugin)
chTMChainMeasurementToX                           ./build/obj/chtm.o (symbol from plugin)
chTMObjectInit                                    ./build/obj/chtm.o (symbol from plugin)
chTMStartMeasurementX                             /var/folders/_f/jzb7lsz153bclt069nvlpp5r0000gn/T//ccGAufxj.ltrans1.ltrans.o
                                                  ./build/obj/chtm.o (symbol from plugin)
                                                  /var/folders/_f/jzb7lsz153bclt069nvlpp5r0000gn/T//ccGAufxj.ltrans0.ltrans.o
chTMStopMeasurementX                              /var/folders/_f/jzb7lsz153bclt069nvlpp5r0000gn/T//ccGAufxj.ltrans1.ltrans.o
                                                  ./build/obj/chtm.o (symbol from plugin)
                                                  /var/folders/_f/jzb7lsz153bclt069nvlpp5r0000gn/T//ccGAufxj.ltrans0.ltrans.o
chThdAddRef                                       ./build/obj/chthreads.o (symbol from plugin)
chThdCreate                                       ./build/obj/chthreads.o (symbol from plugin)
                                                  ./build/obj/chsys.o (symbol from plugin)
chThdCreateFromHeap                               ./build/obj/chdynamic.o (symbol from plugin)
chThdCreateFromMemoryPool                         ./build/obj/chdynamic.o (symbol from plugin)
chThdCreateI                                      ./build/obj/chthreads.o (symbol from plugin)
chThdCreateStatic                                 ./build/obj/chthreads.o (symbol from plugin)
                                                  ./build/obj/svm_chibios.o (symbol from plugin)
chThdCreateSuspended                              ./build/obj/chthreads.o (symbol from plugin)
chThdCreateSuspendedI                             ./build/obj/chthreads.o (symbol from plugin)
                                                  ./build/obj/chdynamic.o (symbol from plugin)
chThdDequeueAllI                                  ./build/obj/chthreads.o (symbol from plugin)
                                                  ./build/obj/chmboxes.o (symbol from plugin)
                                                  ./build/obj/hal_serial_usb.o (symbol from plugin)
                                                  ./build/obj/hal_queues.o (symbol from plugin)
                                                  ./build/obj/hal_buffers.o (symbol from plugin)
chThdDequeueAllI.constprop.57                     /var/folders/_f/jzb7lsz153bclt069nvlpp5r0000gn/T//ccGAufxj.ltrans8.ltrans.o
                                                  /var/folders/_f/jzb7lsz153bclt069nvlpp5r0000gn/T//ccGAufxj.ltrans5.ltrans.o
chThdDequeueNextI                                 ./build/obj/chthreads.o (symbol from plugin)
                                                  ./build/obj/chmboxes.o (symbol from plugin)
                                                  ./build/obj/hal_queues.o (symbol from plugin)
                                                  ./build/obj/hal_buffers.o (symbol from plugin)
chThdDequeueNextI.constprop.55                    /var/folders/_f/jzb7lsz153bclt069nvlpp5r0000gn/T//ccGAufxj.ltrans8.ltrans.o
                                                  /var/folders/_f/jzb7lsz153bclt069nvlpp5r0000gn/T//ccGAufxj.ltrans7.ltrans.o
                                                  /var/folders/_f/jzb7lsz153bclt069nvlpp5r0000gn/T//ccGAufxj.ltrans5.ltrans.o
chThdEnqueueTimeoutS                              /var/folders/_f/jzb7lsz153bclt069nvlpp5r0000gn/T//ccGAufxj.ltrans1.ltrans.o
                                                  ./build/obj/chthreads.o (symbol from plugin)
                                                  /var/folders/_f/jzb7lsz153bclt069nvlpp5r0000gn/T//ccGAufxj.ltrans7.ltrans.o
                                                  /var/folders/_f/jzb7lsz153bclt069nvlpp5r0000gn/T//ccGAufxj.ltrans5.ltrans.o
                                                  ./build/obj/chmboxes.o (symbol from plugin)
                                                  ./build/obj/hal_queues.o (symbol from plugin)
                                                  ./build/obj/hal_buffers.o (symbol from plugin)
chThdExit                                         /var/folders/_f/jzb7lsz153bclt069nvlpp5r0000gn/T//ccGAufxj.ltrans1.ltrans.o
                                                  ./build/obj/chthreads.o (symbol from plugin)
                                                  ./build/obj/chcoreasm_v7m.o
chThdExitS                                        ./build/obj/chthreads.o (symbol from plugin)
chThdRelease                                      ./build/obj/chthreads.o (symbol from plugin)
                                                  ./build/obj/chregistry.o (symbol from plugin)
chThdResume                                       ./build/obj/chthreads.o (symbol from plugin)
                                                  ./build/obj/chpipes.o (symbol from plugin)
chThdResumeI                                      ./build/obj/chthreads.o (symbol from plugin)
                                                  ./build/obj/chpipes.o (symbol from plugin)
                                                  ./build/obj/hal_dac_lld.o (symbol from plugin)
                                                  ./build/obj/hal_dac.o (symbol from plugin)
chThdResumeS                                      ./build/obj/chthreads.o (symbol from plugin)
                                                  ./build/obj/hal_dac.o (symbol from plugin)
chThdSetPriority                                  ./build/obj/chthreads.o (symbol from plugin)
chThdSleep                                        /var/folders/_f/jzb7lsz153bclt069nvlpp5r0000gn/T//ccGAufxj.ltrans1.ltrans.o
                                                  ./build/obj/chthreads.o (symbol from plugin)
                                                  /var/folders/_f/jzb7lsz153bclt069nvlpp5r0000gn/T//ccGAufxj.ltrans0.ltrans.o
                                                  ./build/obj/svm_chibios_main.o (symbol from plugin)
                                                  ./build/obj/sys_time.o (symbol from plugin)
                                                  ./build/obj/hal_usb.o (symbol from plugin)
                                                  ./build/obj/hal_flash.o (symbol from plugin)
chThdSleepUntil                                   ./build/obj/chthreads.o (symbol from plugin)
chThdSleepUntilWindowed                           ./build/obj/chthreads.o (symbol from plugin)
chThdStart                                        ./build/obj/chthreads.o (symbol from plugin)
chThdSuspendS                                     ./build/obj/chthreads.o (symbol from plugin)
chThdSuspendTimeoutS                              ./build/obj/chthreads.o (symbol from plugin)
                                                  ./build/obj/chpipes.o (symbol from plugin)
                                                  ./build/obj/hal_dac.o (symbol from plugin)
chThdTerminate                                    ./build/obj/chthreads.o (symbol from plugin)
chThdWait                                         ./build/obj/chthreads.o (symbol from plugin)
chThdYield                                        ./build/obj/chthreads.o (symbol from plugin)
chVTDoResetI                                      ./build/obj/chvt.o (symbol from plugin)
                                                  ./build/obj/chschd.o (symbol from plugin)
chVTDoSetI                                        ./build/obj/chvt.o (symbol from plugin)
                                                  ./build/obj/chschd.o (symbol from plugin)
chVTDoTickI                                       ./build/obj/chvt.o (symbol from plugin)
                                                  ./build/obj/chsys.o (symbol from plugin)
ch_debug                                          ./build/obj/chregistry.o (symbol from plugin)
                                                  ./build/obj/chsys.o (symbol from plugin)
ch_factory                                        ./build/obj/chfactory.o (symbol from plugin)
ch_idle_thread_wa                                 ./build/obj/chsys.o (symbol from plugin)
ch_memcore                                        /var/folders/_f/jzb7lsz153bclt069nvlpp5r0000gn/T//ccGAufxj.ltrans8.ltrans.o
                                                  ./build/obj/chmemcore.o (symbol from plugin)
                                                  /var/folders/_f/jzb7lsz153bclt069nvlpp5r0000gn/T//ccGAufxj.ltrans1.ltrans.o
                                                  /var/folders/_f/jzb7lsz153bclt069nvlpp5r0000gn/T//ccGAufxj.ltrans0.ltrans.o
chan_recv_q_dequeue                               /var/folders/_f/jzb7lsz153bclt069nvlpp5r0000gn/T//ccGAufxj.ltrans9.ltrans.o
                                                  ./build/obj/chan_recv_queue.o (symbol from plugin)
                                                  /var/folders/_f/jzb7lsz153bclt069nvlpp5r0000gn/T//ccGAufxj.ltrans5.ltrans.o
                                                  /var/folders/_f/jzb7lsz153bclt069nvlpp5r0000gn/T//ccGAufxj.ltrans3.ltrans.o
                                                  ./build/obj/RTS.o (symbol from plugin)
                                                  ./build/obj/event.o (symbol from plugin)
chan_recv_q_enqueue                               ./build/obj/chan_recv_queue.o (symbol from plugin)
                                                  ./build/obj/RTS.o (symbol from plugin)
chan_recv_q_front                                 ./build/obj/chan_recv_queue.o (symbol from plugin)
                                                  ./build/obj/event.o (symbol from plugin)
chan_recv_q_init                                  ./build/obj/chan_recv_queue.o (symbol from plugin)
                                                  ./build/obj/VMC.o (symbol from plugin)
chan_send_q_dequeue                               /var/folders/_f/jzb7lsz153bclt069nvlpp5r0000gn/T//ccGAufxj.ltrans9.ltrans.o
                                                  ./build/obj/chan_send_queue.o (symbol from plugin)
                                                  /var/folders/_f/jzb7lsz153bclt069nvlpp5r0000gn/T//ccGAufxj.ltrans3.ltrans.o
                                                  ./build/obj/RTS.o (symbol from plugin)
                                                  ./build/obj/event.o (symbol from plugin)
chan_send_q_enqueue                               ./build/obj/chan_send_queue.o (symbol from plugin)
                                                  ./build/obj/RTS.o (symbol from plugin)
chan_send_q_front                                 ./build/obj/chan_send_queue.o (symbol from plugin)
                                                  ./build/obj/event.o (symbol from plugin)
chan_send_q_init                                  ./build/obj/chan_send_queue.o (symbol from plugin)
                                                  ./build/obj/VMC.o (symbol from plugin)
channel                                           ./build/obj/RTS.o (symbol from plugin)
                                                  ./build/obj/CAM.o (symbol from plugin)
channel_init                                      ./build/obj/channel.o (symbol from plugin)
                                                  ./build/obj/VMC.o (symbol from plugin)
chibios_container_thread.lto_priv.63              /var/folders/_f/jzb7lsz153bclt069nvlpp5r0000gn/T//ccGAufxj.ltrans5.ltrans.o
                                                  /var/folders/_f/jzb7lsz153bclt069nvlpp5r0000gn/T//ccGAufxj.ltrans0.ltrans.o
chibios_interop                                   ./build/obj/svm_chibios.o (symbol from plugin)
chibios_register_dbg_print                        ./build/obj/svm_chibios.o (symbol from plugin)
                                                  ./build/obj/svm_chibios_main.o (symbol from plugin)
chibios_sensevm_init                              ./build/obj/svm_chibios.o (symbol from plugin)
                                                  ./build/obj/svm_chibios_main.o (symbol from plugin)
chibios_start_container_threads                   ./build/obj/svm_chibios.o (symbol from plugin)
                                                  ./build/obj/svm_chibios_main.o (symbol from plugin)
choose                                            ./build/obj/RTS.o (symbol from plugin)
                                                  ./build/obj/CAM.o (symbol from plugin)
chprintf                                          ./build/obj/chprintf.o (symbol from plugin)
                                                  ./build/obj/svm_chibios_main.o (symbol from plugin)
chprintf.constprop.35                             /var/folders/_f/jzb7lsz153bclt069nvlpp5r0000gn/T//ccGAufxj.ltrans8.ltrans.o
                                                  /var/folders/_f/jzb7lsz153bclt069nvlpp5r0000gn/T//ccGAufxj.ltrans5.ltrans.o
                                                  /var/folders/_f/jzb7lsz153bclt069nvlpp5r0000gn/T//ccGAufxj.ltrans0.ltrans.o
chsnprintf                                        ./build/obj/chprintf.o (symbol from plugin)
chvprintf                                         ./build/obj/chprintf.o (symbol from plugin)
chvsnprintf                                       ./build/obj/chprintf.o (symbol from plugin)
container_names                                   ./build/obj/svm_chibios.o (symbol from plugin)
counter_high_word.lto_priv.100                    /var/folders/_f/jzb7lsz153bclt069nvlpp5r0000gn/T//ccGAufxj.ltrans0.ltrans.o
                                                  /var/folders/_f/jzb7lsz153bclt069nvlpp5r0000gn/T//ccGAufxj.ltrans5.ltrans.o
dacAcquireBus                                     ./build/obj/hal_dac.o (symbol from plugin)
dacConvert                                        ./build/obj/hal_dac.o (symbol from plugin)
dacInit                                           ./build/obj/hal_dac.o (symbol from plugin)
                                                  ./build/obj/hal.o (symbol from plugin)
dacObjectInit                                     ./build/obj/hal_dac.o (symbol from plugin)
                                                  ./build/obj/hal_dac_lld.o (symbol from plugin)
dacPutChannelX                                    ./build/obj/hal_dac.o (symbol from plugin)
                                                  ./build/obj/dac.o (symbol from plugin)
dacReleaseBus                                     ./build/obj/hal_dac.o (symbol from plugin)
dacStart                                          ./build/obj/hal_dac.o (symbol from plugin)
                                                  ./build/obj/VMC.o (symbol from plugin)
dacStartConversion                                ./build/obj/hal_dac.o (symbol from plugin)
dacStartConversionI                               ./build/obj/hal_dac.o (symbol from plugin)
dacStop                                           ./build/obj/hal_dac.o (symbol from plugin)
dacStopConversion                                 ./build/obj/hal_dac.o (symbol from plugin)
dacStopConversionI                                ./build/obj/hal_dac.o (symbol from plugin)
dac_lld_init                                      ./build/obj/hal_dac_lld.o (symbol from plugin)
                                                  ./build/obj/hal_dac.o (symbol from plugin)
dac_lld_put_channel                               ./build/obj/hal_dac_lld.o (symbol from plugin)
                                                  ./build/obj/hal_dac.o (symbol from plugin)
dac_lld_put_channel.constprop.51                  /var/folders/_f/jzb7lsz153bclt069nvlpp5r0000gn/T//ccGAufxj.ltrans8.ltrans.o
                                                  /var/folders/_f/jzb7lsz153bclt069nvlpp5r0000gn/T//ccGAufxj.ltrans5.ltrans.o
                                                  /var/folders/_f/jzb7lsz153bclt069nvlpp5r0000gn/T//ccGAufxj.ltrans0.ltrans.o
dac_lld_start                                     ./build/obj/hal_dac_lld.o (symbol from plugin)
                                                  ./build/obj/hal_dac.o (symbol from plugin)
dac_lld_start_conversion                          ./build/obj/hal_dac_lld.o (symbol from plugin)
                                                  ./build/obj/hal_dac.o (symbol from plugin)
dac_lld_stop                                      ./build/obj/hal_dac_lld.o (symbol from plugin)
                                                  ./build/obj/hal_dac.o (symbol from plugin)
dac_lld_stop_conversion                           ./build/obj/hal_dac_lld.o (symbol from plugin)
                                                  ./build/obj/hal_dac.o (symbol from plugin)
dbg_print                                         ./build/obj/svm_chibios.o (symbol from plugin)
                                                  ./build/obj/scheduler.o (symbol from plugin)
dbg_print_fun                                     /var/folders/_f/jzb7lsz153bclt069nvlpp5r0000gn/T//ccGAufxj.ltrans0.ltrans.o
                                                  ./build/obj/svm_chibios.o (symbol from plugin)
                                                  /var/folders/_f/jzb7lsz153bclt069nvlpp5r0000gn/T//ccGAufxj.ltrans5.ltrans.o
dispatch                                          /var/folders/_f/jzb7lsz153bclt069nvlpp5r0000gn/T//ccGAufxj.ltrans9.ltrans.o
                                                  ./build/obj/RTS.o (symbol from plugin)
                                                  /var/folders/_f/jzb7lsz153bclt069nvlpp5r0000gn/T//ccGAufxj.ltrans3.ltrans.o
                                                  /var/folders/_f/jzb7lsz153bclt069nvlpp5r0000gn/T//ccGAufxj.ltrans2.ltrans.o
                                                  ./build/obj/CAM.o (symbol from plugin)
dma.lto_priv.114                                  /var/folders/_f/jzb7lsz153bclt069nvlpp5r0000gn/T//ccGAufxj.ltrans0.ltrans.o
                                                  /var/folders/_f/jzb7lsz153bclt069nvlpp5r0000gn/T//ccGAufxj.ltrans6.ltrans.o
                                                  /var/folders/_f/jzb7lsz153bclt069nvlpp5r0000gn/T//ccGAufxj.ltrans4.ltrans.o
dmaInit                                           ./build/obj/stm32_dma.o (symbol from plugin)
                                                  ./build/obj/hal_lld.o (symbol from plugin)
dmaStreamAlloc                                    ./build/obj/stm32_dma.o (symbol from plugin)
dmaStreamAllocI                                   ./build/obj/stm32_dma.o (symbol from plugin)
                                                  ./build/obj/hal_dac_lld.o (symbol from plugin)
dmaStreamFree                                     ./build/obj/stm32_dma.o (symbol from plugin)
dmaStreamFreeI                                    ./build/obj/stm32_dma.o (symbol from plugin)
                                                  ./build/obj/hal_dac_lld.o (symbol from plugin)
eval_abs                                          /var/folders/_f/jzb7lsz153bclt069nvlpp5r0000gn/T//ccGAufxj.ltrans2.ltrans.o
                                                  ./build/obj/CAM.o (symbol from plugin)
                                                  /var/folders/_f/jzb7lsz153bclt069nvlpp5r0000gn/T//ccGAufxj.ltrans5.ltrans.o
eval_acc                                          /var/folders/_f/jzb7lsz153bclt069nvlpp5r0000gn/T//ccGAufxj.ltrans2.ltrans.o
                                                  ./build/obj/CAM.o (symbol from plugin)
                                                  /var/folders/_f/jzb7lsz153bclt069nvlpp5r0000gn/T//ccGAufxj.ltrans5.ltrans.o
eval_add_signedi                                  /var/folders/_f/jzb7lsz153bclt069nvlpp5r0000gn/T//ccGAufxj.ltrans2.ltrans.o
                                                  ./build/obj/CAM.o (symbol from plugin)
                                                  /var/folders/_f/jzb7lsz153bclt069nvlpp5r0000gn/T//ccGAufxj.ltrans5.ltrans.o
eval_add_unsignedi                                /var/folders/_f/jzb7lsz153bclt069nvlpp5r0000gn/T//ccGAufxj.ltrans2.ltrans.o
                                                  ./build/obj/CAM.o (symbol from plugin)
                                                  /var/folders/_f/jzb7lsz153bclt069nvlpp5r0000gn/T//ccGAufxj.ltrans5.ltrans.o
eval_addf                                         /var/folders/_f/jzb7lsz153bclt069nvlpp5r0000gn/T//ccGAufxj.ltrans2.ltrans.o
                                                  ./build/obj/CAM.o (symbol from plugin)
                                                  /var/folders/_f/jzb7lsz153bclt069nvlpp5r0000gn/T//ccGAufxj.ltrans5.ltrans.o
eval_app                                          /var/folders/_f/jzb7lsz153bclt069nvlpp5r0000gn/T//ccGAufxj.ltrans2.ltrans.o
                                                  ./build/obj/CAM.o (symbol from plugin)
                                                  /var/folders/_f/jzb7lsz153bclt069nvlpp5r0000gn/T//ccGAufxj.ltrans5.ltrans.o
eval_call                                         /var/folders/_f/jzb7lsz153bclt069nvlpp5r0000gn/T//ccGAufxj.ltrans2.ltrans.o
                                                  ./build/obj/CAM.o (symbol from plugin)
                                                  /var/folders/_f/jzb7lsz153bclt069nvlpp5r0000gn/T//ccGAufxj.ltrans5.ltrans.o
eval_callrts                                      /var/folders/_f/jzb7lsz153bclt069nvlpp5r0000gn/T//ccGAufxj.ltrans3.ltrans.o
                                                  ./build/obj/CAM.o (symbol from plugin)
                                                  /var/folders/_f/jzb7lsz153bclt069nvlpp5r0000gn/T//ccGAufxj.ltrans5.ltrans.o
eval_clear                                        /var/folders/_f/jzb7lsz153bclt069nvlpp5r0000gn/T//ccGAufxj.ltrans2.ltrans.o
                                                  ./build/obj/CAM.o (symbol from plugin)
                                                  /var/folders/_f/jzb7lsz153bclt069nvlpp5r0000gn/T//ccGAufxj.ltrans5.ltrans.o
eval_comb                                         /var/folders/_f/jzb7lsz153bclt069nvlpp5r0000gn/T//ccGAufxj.ltrans3.ltrans.o
                                                  ./build/obj/CAM.o (symbol from plugin)
                                                  /var/folders/_f/jzb7lsz153bclt069nvlpp5r0000gn/T//ccGAufxj.ltrans5.ltrans.o
eval_cons                                         /var/folders/_f/jzb7lsz153bclt069nvlpp5r0000gn/T//ccGAufxj.ltrans2.ltrans.o
                                                  ./build/obj/CAM.o (symbol from plugin)
                                                  /var/folders/_f/jzb7lsz153bclt069nvlpp5r0000gn/T//ccGAufxj.ltrans5.ltrans.o
eval_cur                                          /var/folders/_f/jzb7lsz153bclt069nvlpp5r0000gn/T//ccGAufxj.ltrans2.ltrans.o
                                                  ./build/obj/CAM.o (symbol from plugin)
                                                  /var/folders/_f/jzb7lsz153bclt069nvlpp5r0000gn/T//ccGAufxj.ltrans5.ltrans.o
eval_dec                                          /var/folders/_f/jzb7lsz153bclt069nvlpp5r0000gn/T//ccGAufxj.ltrans2.ltrans.o
                                                  ./build/obj/CAM.o (symbol from plugin)
                                                  /var/folders/_f/jzb7lsz153bclt069nvlpp5r0000gn/T//ccGAufxj.ltrans5.ltrans.o
eval_eq_bool                                      /var/folders/_f/jzb7lsz153bclt069nvlpp5r0000gn/T//ccGAufxj.ltrans2.ltrans.o
                                                  ./build/obj/CAM.o (symbol from plugin)
                                                  /var/folders/_f/jzb7lsz153bclt069nvlpp5r0000gn/T//ccGAufxj.ltrans5.ltrans.o
eval_eq_signedi                                   /var/folders/_f/jzb7lsz153bclt069nvlpp5r0000gn/T//ccGAufxj.ltrans2.ltrans.o
                                                  ./build/obj/CAM.o (symbol from plugin)
                                                  /var/folders/_f/jzb7lsz153bclt069nvlpp5r0000gn/T//ccGAufxj.ltrans5.ltrans.o
eval_eq_unsignedi                                 /var/folders/_f/jzb7lsz153bclt069nvlpp5r0000gn/T//ccGAufxj.ltrans2.ltrans.o
                                                  ./build/obj/CAM.o (symbol from plugin)
                                                  /var/folders/_f/jzb7lsz153bclt069nvlpp5r0000gn/T//ccGAufxj.ltrans5.ltrans.o
eval_eqf                                          /var/folders/_f/jzb7lsz153bclt069nvlpp5r0000gn/T//ccGAufxj.ltrans2.ltrans.o
                                                  ./build/obj/CAM.o (symbol from plugin)
                                                  /var/folders/_f/jzb7lsz153bclt069nvlpp5r0000gn/T//ccGAufxj.ltrans5.ltrans.o
eval_fst                                          /var/folders/_f/jzb7lsz153bclt069nvlpp5r0000gn/T//ccGAufxj.ltrans1.ltrans.o
                                                  ./build/obj/CAM.o (symbol from plugin)
                                                  /var/folders/_f/jzb7lsz153bclt069nvlpp5r0000gn/T//ccGAufxj.ltrans5.ltrans.o
eval_ge_signedi                                   /var/folders/_f/jzb7lsz153bclt069nvlpp5r0000gn/T//ccGAufxj.ltrans2.ltrans.o
                                                  ./build/obj/CAM.o (symbol from plugin)
                                                  /var/folders/_f/jzb7lsz153bclt069nvlpp5r0000gn/T//ccGAufxj.ltrans5.ltrans.o
eval_ge_unsignedi                                 /var/folders/_f/jzb7lsz153bclt069nvlpp5r0000gn/T//ccGAufxj.ltrans2.ltrans.o
                                                  ./build/obj/CAM.o (symbol from plugin)
                                                  /var/folders/_f/jzb7lsz153bclt069nvlpp5r0000gn/T//ccGAufxj.ltrans5.ltrans.o
eval_gef                                          /var/folders/_f/jzb7lsz153bclt069nvlpp5r0000gn/T//ccGAufxj.ltrans2.ltrans.o
                                                  ./build/obj/CAM.o (symbol from plugin)
                                                  /var/folders/_f/jzb7lsz153bclt069nvlpp5r0000gn/T//ccGAufxj.ltrans5.ltrans.o
eval_goto                                         /var/folders/_f/jzb7lsz153bclt069nvlpp5r0000gn/T//ccGAufxj.ltrans2.ltrans.o
                                                  ./build/obj/CAM.o (symbol from plugin)
                                                  /var/folders/_f/jzb7lsz153bclt069nvlpp5r0000gn/T//ccGAufxj.ltrans5.ltrans.o
eval_gotofalse                                    /var/folders/_f/jzb7lsz153bclt069nvlpp5r0000gn/T//ccGAufxj.ltrans2.ltrans.o
                                                  ./build/obj/CAM.o (symbol from plugin)
                                                  /var/folders/_f/jzb7lsz153bclt069nvlpp5r0000gn/T//ccGAufxj.ltrans5.ltrans.o
eval_gotoifalse                                   /var/folders/_f/jzb7lsz153bclt069nvlpp5r0000gn/T//ccGAufxj.ltrans3.ltrans.o
                                                  ./build/obj/CAM.o (symbol from plugin)
                                                  /var/folders/_f/jzb7lsz153bclt069nvlpp5r0000gn/T//ccGAufxj.ltrans5.ltrans.o
eval_gt_signedi                                   /var/folders/_f/jzb7lsz153bclt069nvlpp5r0000gn/T//ccGAufxj.ltrans2.ltrans.o
                                                  ./build/obj/CAM.o (symbol from plugin)
                                                  /var/folders/_f/jzb7lsz153bclt069nvlpp5r0000gn/T//ccGAufxj.ltrans5.ltrans.o
eval_gt_unsignedi                                 /var/folders/_f/jzb7lsz153bclt069nvlpp5r0000gn/T//ccGAufxj.ltrans2.ltrans.o
                                                  ./build/obj/CAM.o (symbol from plugin)
                                                  /var/folders/_f/jzb7lsz153bclt069nvlpp5r0000gn/T//ccGAufxj.ltrans5.ltrans.o
eval_gtf                                          /var/folders/_f/jzb7lsz153bclt069nvlpp5r0000gn/T//ccGAufxj.ltrans2.ltrans.o
                                                  ./build/obj/CAM.o (symbol from plugin)
                                                  /var/folders/_f/jzb7lsz153bclt069nvlpp5r0000gn/T//ccGAufxj.ltrans5.ltrans.o
eval_le_signedi                                   /var/folders/_f/jzb7lsz153bclt069nvlpp5r0000gn/T//ccGAufxj.ltrans2.ltrans.o
                                                  ./build/obj/CAM.o (symbol from plugin)
                                                  /var/folders/_f/jzb7lsz153bclt069nvlpp5r0000gn/T//ccGAufxj.ltrans5.ltrans.o
eval_le_unsignedi                                 /var/folders/_f/jzb7lsz153bclt069nvlpp5r0000gn/T//ccGAufxj.ltrans2.ltrans.o
                                                  ./build/obj/CAM.o (symbol from plugin)
                                                  /var/folders/_f/jzb7lsz153bclt069nvlpp5r0000gn/T//ccGAufxj.ltrans5.ltrans.o
eval_lef                                          /var/folders/_f/jzb7lsz153bclt069nvlpp5r0000gn/T//ccGAufxj.ltrans2.ltrans.o
                                                  ./build/obj/CAM.o (symbol from plugin)
                                                  /var/folders/_f/jzb7lsz153bclt069nvlpp5r0000gn/T//ccGAufxj.ltrans5.ltrans.o
eval_loadb                                        /var/folders/_f/jzb7lsz153bclt069nvlpp5r0000gn/T//ccGAufxj.ltrans2.ltrans.o
                                                  ./build/obj/CAM.o (symbol from plugin)
                                                  /var/folders/_f/jzb7lsz153bclt069nvlpp5r0000gn/T//ccGAufxj.ltrans5.ltrans.o
eval_loadi                                        /var/folders/_f/jzb7lsz153bclt069nvlpp5r0000gn/T//ccGAufxj.ltrans2.ltrans.o
                                                  ./build/obj/CAM.o (symbol from plugin)
                                                  /var/folders/_f/jzb7lsz153bclt069nvlpp5r0000gn/T//ccGAufxj.ltrans5.ltrans.o
eval_lt_signedi                                   /var/folders/_f/jzb7lsz153bclt069nvlpp5r0000gn/T//ccGAufxj.ltrans2.ltrans.o
                                                  ./build/obj/CAM.o (symbol from plugin)
                                                  /var/folders/_f/jzb7lsz153bclt069nvlpp5r0000gn/T//ccGAufxj.ltrans5.ltrans.o
eval_lt_unsignedi                                 /var/folders/_f/jzb7lsz153bclt069nvlpp5r0000gn/T//ccGAufxj.ltrans2.ltrans.o
                                                  ./build/obj/CAM.o (symbol from plugin)
                                                  /var/folders/_f/jzb7lsz153bclt069nvlpp5r0000gn/T//ccGAufxj.ltrans5.ltrans.o
eval_ltf                                          /var/folders/_f/jzb7lsz153bclt069nvlpp5r0000gn/T//ccGAufxj.ltrans2.ltrans.o
                                                  ./build/obj/CAM.o (symbol from plugin)
                                                  /var/folders/_f/jzb7lsz153bclt069nvlpp5r0000gn/T//ccGAufxj.ltrans5.ltrans.o
eval_min_signedi                                  /var/folders/_f/jzb7lsz153bclt069nvlpp5r0000gn/T//ccGAufxj.ltrans2.ltrans.o
                                                  ./build/obj/CAM.o (symbol from plugin)
                                                  /var/folders/_f/jzb7lsz153bclt069nvlpp5r0000gn/T//ccGAufxj.ltrans5.ltrans.o
eval_min_unsignedi                                /var/folders/_f/jzb7lsz153bclt069nvlpp5r0000gn/T//ccGAufxj.ltrans2.ltrans.o
                                                  ./build/obj/CAM.o (symbol from plugin)
                                                  /var/folders/_f/jzb7lsz153bclt069nvlpp5r0000gn/T//ccGAufxj.ltrans5.ltrans.o
eval_minf                                         /var/folders/_f/jzb7lsz153bclt069nvlpp5r0000gn/T//ccGAufxj.ltrans2.ltrans.o
                                                  ./build/obj/CAM.o (symbol from plugin)
                                                  /var/folders/_f/jzb7lsz153bclt069nvlpp5r0000gn/T//ccGAufxj.ltrans5.ltrans.o
eval_move                                         /var/folders/_f/jzb7lsz153bclt069nvlpp5r0000gn/T//ccGAufxj.ltrans2.ltrans.o
                                                  ./build/obj/CAM.o (symbol from plugin)
                                                  /var/folders/_f/jzb7lsz153bclt069nvlpp5r0000gn/T//ccGAufxj.ltrans5.ltrans.o
eval_mul_signedi                                  /var/folders/_f/jzb7lsz153bclt069nvlpp5r0000gn/T//ccGAufxj.ltrans2.ltrans.o
                                                  ./build/obj/CAM.o (symbol from plugin)
                                                  /var/folders/_f/jzb7lsz153bclt069nvlpp5r0000gn/T//ccGAufxj.ltrans5.ltrans.o
eval_mul_unsignedi                                /var/folders/_f/jzb7lsz153bclt069nvlpp5r0000gn/T//ccGAufxj.ltrans2.ltrans.o
                                                  ./build/obj/CAM.o (symbol from plugin)
                                                  /var/folders/_f/jzb7lsz153bclt069nvlpp5r0000gn/T//ccGAufxj.ltrans5.ltrans.o
eval_mulf                                         /var/folders/_f/jzb7lsz153bclt069nvlpp5r0000gn/T//ccGAufxj.ltrans2.ltrans.o
                                                  ./build/obj/CAM.o (symbol from plugin)
                                                  /var/folders/_f/jzb7lsz153bclt069nvlpp5r0000gn/T//ccGAufxj.ltrans5.ltrans.o
eval_neg                                          /var/folders/_f/jzb7lsz153bclt069nvlpp5r0000gn/T//ccGAufxj.ltrans2.ltrans.o
                                                  ./build/obj/CAM.o (symbol from plugin)
                                                  /var/folders/_f/jzb7lsz153bclt069nvlpp5r0000gn/T//ccGAufxj.ltrans5.ltrans.o
eval_not                                          /var/folders/_f/jzb7lsz153bclt069nvlpp5r0000gn/T//ccGAufxj.ltrans2.ltrans.o
                                                  ./build/obj/CAM.o (symbol from plugin)
                                                  /var/folders/_f/jzb7lsz153bclt069nvlpp5r0000gn/T//ccGAufxj.ltrans5.ltrans.o
eval_pack                                         /var/folders/_f/jzb7lsz153bclt069nvlpp5r0000gn/T//ccGAufxj.ltrans2.ltrans.o
                                                  ./build/obj/CAM.o (symbol from plugin)
                                                  /var/folders/_f/jzb7lsz153bclt069nvlpp5r0000gn/T//ccGAufxj.ltrans5.ltrans.o
eval_pop                                          /var/folders/_f/jzb7lsz153bclt069nvlpp5r0000gn/T//ccGAufxj.ltrans2.ltrans.o
                                                  ./build/obj/CAM.o (symbol from plugin)
                                                  /var/folders/_f/jzb7lsz153bclt069nvlpp5r0000gn/T//ccGAufxj.ltrans5.ltrans.o
eval_push                                         /var/folders/_f/jzb7lsz153bclt069nvlpp5r0000gn/T//ccGAufxj.ltrans2.ltrans.o
                                                  ./build/obj/CAM.o (symbol from plugin)
                                                  /var/folders/_f/jzb7lsz153bclt069nvlpp5r0000gn/T//ccGAufxj.ltrans5.ltrans.o
eval_rest                                         /var/folders/_f/jzb7lsz153bclt069nvlpp5r0000gn/T//ccGAufxj.ltrans2.ltrans.o
                                                  ./build/obj/CAM.o (symbol from plugin)
                                                  /var/folders/_f/jzb7lsz153bclt069nvlpp5r0000gn/T//ccGAufxj.ltrans5.ltrans.o
eval_return                                       /var/folders/_f/jzb7lsz153bclt069nvlpp5r0000gn/T//ccGAufxj.ltrans2.ltrans.o
                                                  ./build/obj/CAM.o (symbol from plugin)
                                                  /var/folders/_f/jzb7lsz153bclt069nvlpp5r0000gn/T//ccGAufxj.ltrans5.ltrans.o
eval_skip                                         /var/folders/_f/jzb7lsz153bclt069nvlpp5r0000gn/T//ccGAufxj.ltrans2.ltrans.o
                                                  ./build/obj/CAM.o (symbol from plugin)
                                                  /var/folders/_f/jzb7lsz153bclt069nvlpp5r0000gn/T//ccGAufxj.ltrans5.ltrans.o
eval_snd                                          /var/folders/_f/jzb7lsz153bclt069nvlpp5r0000gn/T//ccGAufxj.ltrans1.ltrans.o
                                                  ./build/obj/CAM.o (symbol from plugin)
                                                  /var/folders/_f/jzb7lsz153bclt069nvlpp5r0000gn/T//ccGAufxj.ltrans5.ltrans.o
eval_snoc                                         /var/folders/_f/jzb7lsz153bclt069nvlpp5r0000gn/T//ccGAufxj.ltrans2.ltrans.o
                                                  ./build/obj/CAM.o (symbol from plugin)
                                                  /var/folders/_f/jzb7lsz153bclt069nvlpp5r0000gn/T//ccGAufxj.ltrans5.ltrans.o
eval_stop                                         /var/folders/_f/jzb7lsz153bclt069nvlpp5r0000gn/T//ccGAufxj.ltrans2.ltrans.o
                                                  ./build/obj/CAM.o (symbol from plugin)
                                                  /var/folders/_f/jzb7lsz153bclt069nvlpp5r0000gn/T//ccGAufxj.ltrans5.ltrans.o
eval_swap                                         /var/folders/_f/jzb7lsz153bclt069nvlpp5r0000gn/T//ccGAufxj.ltrans2.ltrans.o
                                                  ./build/obj/CAM.o (symbol from plugin)
                                                  /var/folders/_f/jzb7lsz153bclt069nvlpp5r0000gn/T//ccGAufxj.ltrans5.ltrans.o
eval_switch                                       /var/folders/_f/jzb7lsz153bclt069nvlpp5r0000gn/T//ccGAufxj.ltrans2.ltrans.o
                                                  ./build/obj/CAM.o (symbol from plugin)
                                                  /var/folders/_f/jzb7lsz153bclt069nvlpp5r0000gn/T//ccGAufxj.ltrans5.ltrans.o
eval_switchi                                      /var/folders/_f/jzb7lsz153bclt069nvlpp5r0000gn/T//ccGAufxj.ltrans3.ltrans.o
                                                  ./build/obj/CAM.o (symbol from plugin)
                                                  /var/folders/_f/jzb7lsz153bclt069nvlpp5r0000gn/T//ccGAufxj.ltrans5.ltrans.o
evaluators                                        ./build/obj/CAM.o (symbol from plugin)
                                                  ./build/obj/scheduler.o (symbol from plugin)
flashGetSectorOffset                              ./build/obj/hal_flash.o (symbol from plugin)
flashGetSectorSize                                ./build/obj/hal_flash.o (symbol from plugin)
flashWaitErase                                    ./build/obj/hal_flash.o (symbol from plugin)
gc_stats                                          ./build/obj/heap.o (symbol from plugin)
get_cam_val                                       ./build/obj/heap.o (symbol from plugin)
                                                  ./build/obj/VMC.o (symbol from plugin)
get_descriptor.lto_priv.81                        /var/folders/_f/jzb7lsz153bclt069nvlpp5r0000gn/T//ccGAufxj.ltrans5.ltrans.o
                                                  /var/folders/_f/jzb7lsz153bclt069nvlpp5r0000gn/T//ccGAufxj.ltrans0.ltrans.o
get_label                                         ./build/obj/CAM.o (symbol from plugin)
get_tag                                           ./build/obj/CAM.o (symbol from plugin)
halInit                                           ./build/obj/hal.o (symbol from plugin)
                                                  ./build/obj/svm_chibios_main.o (symbol from plugin)
hal_lld_init                                      ./build/obj/hal_lld.o (symbol from plugin)
                                                  ./build/obj/hal.o (symbol from plugin)
handle_msg                                        ./build/obj/RTS.o (symbol from plugin)
                                                  ./build/obj/scheduler.o (symbol from plugin)
heap_allocate                                     /var/folders/_f/jzb7lsz153bclt069nvlpp5r0000gn/T//ccGAufxj.ltrans9.ltrans.o
                                                  ./build/obj/heap.o (symbol from plugin)
                                                  /var/folders/_f/jzb7lsz153bclt069nvlpp5r0000gn/T//ccGAufxj.ltrans8.ltrans.o
                                                  ./build/obj/VMC.o (symbol from plugin)
heap_clear_stats                                  ./build/obj/heap.o (symbol from plugin)
heap_fst                                          /var/folders/_f/jzb7lsz153bclt069nvlpp5r0000gn/T//ccGAufxj.ltrans9.ltrans.o
                                                  ./build/obj/heap.o (symbol from plugin)
                                                  /var/folders/_f/jzb7lsz153bclt069nvlpp5r0000gn/T//ccGAufxj.ltrans8.ltrans.o
                                                  /var/folders/_f/jzb7lsz153bclt069nvlpp5r0000gn/T//ccGAufxj.ltrans3.ltrans.o
                                                  /var/folders/_f/jzb7lsz153bclt069nvlpp5r0000gn/T//ccGAufxj.ltrans2.ltrans.o
                                                  /var/folders/_f/jzb7lsz153bclt069nvlpp5r0000gn/T//ccGAufxj.ltrans1.ltrans.o
                                                  ./build/obj/RTS.o (symbol from plugin)
                                                  ./build/obj/event.o (symbol from plugin)
                                                  ./build/obj/CAM.o (symbol from plugin)
heap_get_stats                                    ./build/obj/heap.o (symbol from plugin)
heap_init                                         ./build/obj/heap.o (symbol from plugin)
                                                  ./build/obj/VMC.o (symbol from plugin)
heap_mark                                         ./build/obj/heap.o (symbol from plugin)
                                                  ./build/obj/VMC.o (symbol from plugin)
heap_mark_phase.lto_priv.61                       /var/folders/_f/jzb7lsz153bclt069nvlpp5r0000gn/T//ccGAufxj.ltrans9.ltrans.o
                                                  /var/folders/_f/jzb7lsz153bclt069nvlpp5r0000gn/T//ccGAufxj.ltrans8.ltrans.o
heap_set                                          /var/folders/_f/jzb7lsz153bclt069nvlpp5r0000gn/T//ccGAufxj.ltrans9.ltrans.o
                                                  ./build/obj/heap.o (symbol from plugin)
                                                  /var/folders/_f/jzb7lsz153bclt069nvlpp5r0000gn/T//ccGAufxj.ltrans3.ltrans.o
                                                  /var/folders/_f/jzb7lsz153bclt069nvlpp5r0000gn/T//ccGAufxj.ltrans2.ltrans.o
                                                  ./build/obj/RTS.o (symbol from plugin)
                                                  ./build/obj/CAM.o (symbol from plugin)
heap_set_fst                                      ./build/obj/heap.o (symbol from plugin)
                                                  ./build/obj/RTS.o (symbol from plugin)
heap_set_snd                                      ./build/obj/heap.o (symbol from plugin)
                                                  ./build/obj/VMC.o (symbol from plugin)
                                                  ./build/obj/RTS.o (symbol from plugin)
                                                  ./build/obj/CAM.o (symbol from plugin)
heap_snd                                          /var/folders/_f/jzb7lsz153bclt069nvlpp5r0000gn/T//ccGAufxj.ltrans9.ltrans.o
                                                  ./build/obj/heap.o (symbol from plugin)
                                                  /var/folders/_f/jzb7lsz153bclt069nvlpp5r0000gn/T//ccGAufxj.ltrans8.ltrans.o
                                                  /var/folders/_f/jzb7lsz153bclt069nvlpp5r0000gn/T//ccGAufxj.ltrans3.ltrans.o
                                                  /var/folders/_f/jzb7lsz153bclt069nvlpp5r0000gn/T//ccGAufxj.ltrans2.ltrans.o
                                                  /var/folders/_f/jzb7lsz153bclt069nvlpp5r0000gn/T//ccGAufxj.ltrans1.ltrans.o
                                                  ./build/obj/RTS.o (symbol from plugin)
                                                  ./build/obj/CAM.o (symbol from plugin)
ibnotify.lto_priv.77                              /var/folders/_f/jzb7lsz153bclt069nvlpp5r0000gn/T//ccGAufxj.ltrans7.ltrans.o
                                                  /var/folders/_f/jzb7lsz153bclt069nvlpp5r0000gn/T//ccGAufxj.ltrans0.ltrans.o
ibqGetEmptyBufferI                                ./build/obj/hal_buffers.o (symbol from plugin)
                                                  ./build/obj/hal_serial_usb.o (symbol from plugin)
ibqGetFullBufferTimeout                           ./build/obj/hal_buffers.o (symbol from plugin)
ibqGetFullBufferTimeoutS                          ./build/obj/hal_buffers.o (symbol from plugin)
ibqGetTimeout                                     ./build/obj/hal_buffers.o (symbol from plugin)
                                                  ./build/obj/hal_serial_usb.o (symbol from plugin)
ibqObjectInit                                     ./build/obj/hal_buffers.o (symbol from plugin)
                                                  ./build/obj/hal_serial_usb.o (symbol from plugin)
ibqPostFullBufferI                                ./build/obj/hal_buffers.o (symbol from plugin)
                                                  ./build/obj/hal_serial_usb.o (symbol from plugin)
ibqReadTimeout                                    ./build/obj/hal_buffers.o (symbol from plugin)
                                                  ./build/obj/hal_serial_usb.o (symbol from plugin)
ibqReleaseEmptyBuffer                             ./build/obj/hal_buffers.o (symbol from plugin)
ibqReleaseEmptyBufferS                            ./build/obj/hal_buffers.o (symbol from plugin)
ibqResetI                                         ./build/obj/hal_buffers.o (symbol from plugin)
                                                  ./build/obj/hal_serial_usb.o (symbol from plugin)
interop                                           /var/folders/_f/jzb7lsz153bclt069nvlpp5r0000gn/T//ccGAufxj.ltrans0.ltrans.o
                                                  ./build/obj/sys_time.o (symbol from plugin)
                                                  /var/folders/_f/jzb7lsz153bclt069nvlpp5r0000gn/T//ccGAufxj.ltrans5.ltrans.o
iqGetI                                            ./build/obj/hal_queues.o (symbol from plugin)
iqGetTimeout                                      ./build/obj/hal_queues.o (symbol from plugin)
iqObjectInit                                      ./build/obj/hal_queues.o (symbol from plugin)
iqPutI                                            ./build/obj/hal_queues.o (symbol from plugin)
iqReadI                                           ./build/obj/hal_queues.o (symbol from plugin)
iqReadTimeout                                     ./build/obj/hal_queues.o (symbol from plugin)
iqResetI                                          ./build/obj/hal_queues.o (symbol from plugin)
irqDeinit                                         ./build/obj/stm32_isr.o (symbol from plugin)
irqInit                                           ./build/obj/stm32_isr.o (symbol from plugin)
                                                  ./build/obj/hal_lld.o (symbol from plugin)
ll_button_init                                    ./build/obj/button.o (symbol from plugin)
ll_dac                                            ./build/obj/VMC.o (symbol from plugin)
ll_dac_control.lto_priv.72                        /var/folders/_f/jzb7lsz153bclt069nvlpp5r0000gn/T//ccGAufxj.ltrans5.ltrans.o
                                                  /var/folders/_f/jzb7lsz153bclt069nvlpp5r0000gn/T//ccGAufxj.ltrans0.ltrans.o
ll_dac_data_available.lto_priv.75                 /var/folders/_f/jzb7lsz153bclt069nvlpp5r0000gn/T//ccGAufxj.ltrans5.ltrans.o
                                                  /var/folders/_f/jzb7lsz153bclt069nvlpp5r0000gn/T//ccGAufxj.ltrans0.ltrans.o
ll_dac_data_writeable.lto_priv.76                 /var/folders/_f/jzb7lsz153bclt069nvlpp5r0000gn/T//ccGAufxj.ltrans5.ltrans.o
                                                  /var/folders/_f/jzb7lsz153bclt069nvlpp5r0000gn/T//ccGAufxj.ltrans0.ltrans.o
ll_dac_init                                       ./build/obj/dac.o (symbol from plugin)
                                                  ./build/obj/VMC.o (symbol from plugin)
ll_dac_read.lto_priv.73                           /var/folders/_f/jzb7lsz153bclt069nvlpp5r0000gn/T//ccGAufxj.ltrans5.ltrans.o
                                                  /var/folders/_f/jzb7lsz153bclt069nvlpp5r0000gn/T//ccGAufxj.ltrans0.ltrans.o
ll_dac_write.lto_priv.74                          /var/folders/_f/jzb7lsz153bclt069nvlpp5r0000gn/T//ccGAufxj.ltrans5.ltrans.o
                                                  /var/folders/_f/jzb7lsz153bclt069nvlpp5r0000gn/T//ccGAufxj.ltrans0.ltrans.o
ll_data_readable                                  ./build/obj/ll_driver.o (symbol from plugin)
ll_data_writeable                                 ./build/obj/ll_driver.o (symbol from plugin)
ll_driver_init                                    ./build/obj/ll_driver.o (symbol from plugin)
ll_led_init                                       ./build/obj/led.o (symbol from plugin)
ll_read                                           ./build/obj/ll_driver.o (symbol from plugin)
                                                  ./build/obj/RTS.o (symbol from plugin)
ll_write                                          ./build/obj/ll_driver.o (symbol from plugin)
                                                  ./build/obj/RTS.o (symbol from plugin)
localeconv                                        /usr/local/Cellar/gcc-arm-none-eabi-49/20150925/bin/../lib/gcc/arm-none-eabi/4.9.3/../../../../arm-none-eabi/lib/armv7e-m/fpu/libg.a(lib_a-locale.o)
main                                              /var/folders/_f/jzb7lsz153bclt069nvlpp5r0000gn/T//ccGAufxj.ltrans0.ltrans.o
                                                  ./build/obj/svm_chibios_main.o (symbol from plugin)
                                                  ./build/obj/crt0_v7m.o
memchr                                            /usr/local/Cellar/gcc-arm-none-eabi-49/20150925/bin/../lib/gcc/arm-none-eabi/4.9.3/../../../../arm-none-eabi/lib/armv7e-m/fpu/libg.a(lib_a-memchr.o)
                                                  /usr/local/Cellar/gcc-arm-none-eabi-49/20150925/bin/../lib/gcc/arm-none-eabi/4.9.3/../../../../arm-none-eabi/lib/armv7e-m/fpu/libg.a(lib_a-svfiprintf.o)
                                                  /usr/local/Cellar/gcc-arm-none-eabi-49/20150925/bin/../lib/gcc/arm-none-eabi/4.9.3/../../../../arm-none-eabi/lib/armv7e-m/fpu/libg.a(lib_a-svfprintf.o)
memcpy                                            /usr/local/Cellar/gcc-arm-none-eabi-49/20150925/bin/../lib/gcc/arm-none-eabi/4.9.3/../../../../arm-none-eabi/lib/armv7e-m/fpu/libg.a(lib_a-memcpy.o)
                                                  /usr/local/Cellar/gcc-arm-none-eabi-49/20150925/bin/../lib/gcc/arm-none-eabi/4.9.3/../../../../arm-none-eabi/lib/armv7e-m/fpu/libg.a(lib_a-svfiprintf.o)
                                                  /usr/local/Cellar/gcc-arm-none-eabi-49/20150925/bin/../lib/gcc/arm-none-eabi/4.9.3/../../../../arm-none-eabi/lib/armv7e-m/fpu/libg.a(lib_a-mprec.o)
                                                  /usr/local/Cellar/gcc-arm-none-eabi-49/20150925/bin/../lib/gcc/arm-none-eabi/4.9.3/../../../../arm-none-eabi/lib/armv7e-m/fpu/libg.a(lib_a-dtoa.o)
                                                  /var/folders/_f/jzb7lsz153bclt069nvlpp5r0000gn/T//ccGAufxj.ltrans7.ltrans.o
memmove                                           /usr/local/Cellar/gcc-arm-none-eabi-49/20150925/bin/../lib/gcc/arm-none-eabi/4.9.3/../../../../arm-none-eabi/lib/armv7e-m/fpu/libg.a(lib_a-memmove.o)
                                                  /usr/local/Cellar/gcc-arm-none-eabi-49/20150925/bin/../lib/gcc/arm-none-eabi/4.9.3/../../../../arm-none-eabi/lib/armv7e-m/fpu/libg.a(lib_a-reallocr.o)
                                                  /usr/local/Cellar/gcc-arm-none-eabi-49/20150925/bin/../lib/gcc/arm-none-eabi/4.9.3/../../../../arm-none-eabi/lib/armv7e-m/fpu/libg.a(lib_a-svfiprintf.o)
memset                                            /usr/local/Cellar/gcc-arm-none-eabi-49/20150925/bin/../lib/gcc/arm-none-eabi/4.9.3/../../../../arm-none-eabi/lib/armv7e-m/fpu/libg.a(lib_a-memset.o)
                                                  /usr/local/Cellar/gcc-arm-none-eabi-49/20150925/bin/../lib/gcc/arm-none-eabi/4.9.3/../../../../arm-none-eabi/lib/armv7e-m/fpu/libg.a(lib_a-callocr.o)
                                                  /var/folders/_f/jzb7lsz153bclt069nvlpp5r0000gn/T//ccGAufxj.ltrans8.ltrans.o
                                                  /var/folders/_f/jzb7lsz153bclt069nvlpp5r0000gn/T//ccGAufxj.ltrans7.ltrans.o
                                                  /var/folders/_f/jzb7lsz153bclt069nvlpp5r0000gn/T//ccGAufxj.ltrans5.ltrans.o
message_pass.constprop.17                         /var/folders/_f/jzb7lsz153bclt069nvlpp5r0000gn/T//ccGAufxj.ltrans8.ltrans.o
                                                  /var/folders/_f/jzb7lsz153bclt069nvlpp5r0000gn/T//ccGAufxj.ltrans5.ltrans.o
                                                  /var/folders/_f/jzb7lsz153bclt069nvlpp5r0000gn/T//ccGAufxj.ltrans3.ltrans.o
msObjectInit                                      ./build/obj/memstreams.o (symbol from plugin)
                                                  ./build/obj/chprintf.o (symbol from plugin)
nullObjectInit                                    ./build/obj/nullstreams.o (symbol from plugin)
nvicClearPending                                  ./build/obj/nvic.o (symbol from plugin)
nvicDisableVector                                 ./build/obj/nvic.o (symbol from plugin)
                                                  ./build/obj/hal_usb_lld.o (symbol from plugin)
                                                  ./build/obj/stm32_dma.o (symbol from plugin)
                                                  ./build/obj/stm32_isr.o (symbol from plugin)
nvicEnableVector                                  ./build/obj/nvic.o (symbol from plugin)
                                                  ./build/obj/sys_time.o (symbol from plugin)
                                                  ./build/obj/hal_st_lld.o (symbol from plugin)
                                                  ./build/obj/hal_usb_lld.o (symbol from plugin)
                                                  ./build/obj/stm32_dma.o (symbol from plugin)
                                                  ./build/obj/stm32_isr.o (symbol from plugin)
nvicSetSystemHandlerPriority                      ./build/obj/nvic.o (symbol from plugin)
obnotify.lto_priv.78                              /var/folders/_f/jzb7lsz153bclt069nvlpp5r0000gn/T//ccGAufxj.ltrans7.ltrans.o
                                                  /var/folders/_f/jzb7lsz153bclt069nvlpp5r0000gn/T//ccGAufxj.ltrans0.ltrans.o
obqFlush                                          ./build/obj/hal_buffers.o (symbol from plugin)
obqGetEmptyBufferTimeout                          ./build/obj/hal_buffers.o (symbol from plugin)
obqGetEmptyBufferTimeoutS                         ./build/obj/hal_buffers.o (symbol from plugin)
obqGetFullBufferI                                 /var/folders/_f/jzb7lsz153bclt069nvlpp5r0000gn/T//ccGAufxj.ltrans7.ltrans.o
                                                  ./build/obj/hal_buffers.o (symbol from plugin)
                                                  /var/folders/_f/jzb7lsz153bclt069nvlpp5r0000gn/T//ccGAufxj.ltrans5.ltrans.o
                                                  ./build/obj/hal_serial_usb.o (symbol from plugin)
obqObjectInit                                     ./build/obj/hal_buffers.o (symbol from plugin)
                                                  ./build/obj/hal_serial_usb.o (symbol from plugin)
obqPostFullBuffer                                 ./build/obj/hal_buffers.o (symbol from plugin)
obqPostFullBufferS                                ./build/obj/hal_buffers.o (symbol from plugin)
obqPutTimeout                                     ./build/obj/hal_buffers.o (symbol from plugin)
                                                  ./build/obj/hal_serial_usb.o (symbol from plugin)
obqReleaseEmptyBufferI                            ./build/obj/hal_buffers.o (symbol from plugin)
                                                  ./build/obj/hal_serial_usb.o (symbol from plugin)
obqResetI                                         ./build/obj/hal_buffers.o (symbol from plugin)
                                                  ./build/obj/hal_serial_usb.o (symbol from plugin)
obqTryFlushI                                      ./build/obj/hal_buffers.o (symbol from plugin)
                                                  ./build/obj/hal_serial_usb.o (symbol from plugin)
obqWriteTimeout                                   ./build/obj/hal_buffers.o (symbol from plugin)
                                                  ./build/obj/hal_serial_usb.o (symbol from plugin)
oqGetI                                            ./build/obj/hal_queues.o (symbol from plugin)
oqObjectInit                                      ./build/obj/hal_queues.o (symbol from plugin)
oqPutI                                            ./build/obj/hal_queues.o (symbol from plugin)
oqPutTimeout                                      ./build/obj/hal_queues.o (symbol from plugin)
oqResetI                                          ./build/obj/hal_queues.o (symbol from plugin)
oqWriteI                                          ./build/obj/hal_queues.o (symbol from plugin)
oqWriteTimeout                                    ./build/obj/hal_queues.o (symbol from plugin)
palReadBus                                        ./build/obj/hal_pal.o (symbol from plugin)
palSetBusMode                                     ./build/obj/hal_pal.o (symbol from plugin)
palSetLineCallbackI                               ./build/obj/hal_pal.o (symbol from plugin)
palSetPadCallbackI                                ./build/obj/hal_pal.o (symbol from plugin)
palWriteBus                                       ./build/obj/hal_pal.o (symbol from plugin)
poll_recvq                                        /var/folders/_f/jzb7lsz153bclt069nvlpp5r0000gn/T//ccGAufxj.ltrans9.ltrans.o
                                                  ./build/obj/event.o (symbol from plugin)
                                                  /var/folders/_f/jzb7lsz153bclt069nvlpp5r0000gn/T//ccGAufxj.ltrans8.ltrans.o
                                                  /var/folders/_f/jzb7lsz153bclt069nvlpp5r0000gn/T//ccGAufxj.ltrans3.ltrans.o
                                                  ./build/obj/RTS.o (symbol from plugin)
poll_sendq                                        /var/folders/_f/jzb7lsz153bclt069nvlpp5r0000gn/T//ccGAufxj.ltrans9.ltrans.o
                                                  ./build/obj/event.o (symbol from plugin)
                                                  /var/folders/_f/jzb7lsz153bclt069nvlpp5r0000gn/T//ccGAufxj.ltrans8.ltrans.o
                                                  /var/folders/_f/jzb7lsz153bclt069nvlpp5r0000gn/T//ccGAufxj.ltrans3.ltrans.o
                                                  ./build/obj/RTS.o (symbol from plugin)
port_init                                         ./build/obj/chcore_v7m.o (symbol from plugin)
                                                  ./build/obj/chsys.o (symbol from plugin)
postSync.isra.2.lto_priv.62                       /var/folders/_f/jzb7lsz153bclt069nvlpp5r0000gn/T//ccGAufxj.ltrans9.ltrans.o
                                                  /var/folders/_f/jzb7lsz153bclt069nvlpp5r0000gn/T//ccGAufxj.ltrans8.ltrans.o
                                                  /var/folders/_f/jzb7lsz153bclt069nvlpp5r0000gn/T//ccGAufxj.ltrans3.ltrans.o
pq_extractMin                                     /var/folders/_f/jzb7lsz153bclt069nvlpp5r0000gn/T//ccGAufxj.ltrans5.ltrans.o
                                                  ./build/obj/priorityqueue.o (symbol from plugin)
                                                  /var/folders/_f/jzb7lsz153bclt069nvlpp5r0000gn/T//ccGAufxj.ltrans9.ltrans.o
                                                  ./build/obj/RTS.o (symbol from plugin)
pq_getMin                                         ./build/obj/priorityqueue.o (symbol from plugin)
                                                  ./build/obj/RTS.o (symbol from plugin)
pq_init                                           ./build/obj/priorityqueue.o (symbol from plugin)
                                                  ./build/obj/VMC.o (symbol from plugin)
pq_insert                                         /var/folders/_f/jzb7lsz153bclt069nvlpp5r0000gn/T//ccGAufxj.ltrans9.ltrans.o
                                                  ./build/obj/priorityqueue.o (symbol from plugin)
                                                  /var/folders/_f/jzb7lsz153bclt069nvlpp5r0000gn/T//ccGAufxj.ltrans5.ltrans.o
                                                  /var/folders/_f/jzb7lsz153bclt069nvlpp5r0000gn/T//ccGAufxj.ltrans3.ltrans.o
                                                  ./build/obj/RTS.o (symbol from plugin)
pq_isEmpty                                        ./build/obj/priorityqueue.o (symbol from plugin)
print_it                                          /var/folders/_f/jzb7lsz153bclt069nvlpp5r0000gn/T//ccGAufxj.ltrans5.ltrans.o
                                                  ./build/obj/svm_chibios_main.o (symbol from plugin)
                                                  /var/folders/_f/jzb7lsz153bclt069nvlpp5r0000gn/T//ccGAufxj.ltrans0.ltrans.o
q_dequeue                                         ./build/obj/queue.o (symbol from plugin)
q_enqueue                                         ./build/obj/queue.o (symbol from plugin)
q_front                                           ./build/obj/queue.o (symbol from plugin)
q_init                                            ./build/obj/queue.o (symbol from plugin)
q_isempty                                         ./build/obj/queue.o (symbol from plugin)
q_remove                                          ./build/obj/queue.o (symbol from plugin)
recvEvt                                           ./build/obj/RTS.o (symbol from plugin)
                                                  ./build/obj/CAM.o (symbol from plugin)
scheduler                                         ./build/obj/scheduler.o (symbol from plugin)
                                                  ./build/obj/svm_chibios.o (symbol from plugin)
sduConfigureHookI                                 ./build/obj/hal_serial_usb.o (symbol from plugin)
                                                  ./build/obj/usbcfg.o (symbol from plugin)
sduControl                                        ./build/obj/hal_serial_usb.o (symbol from plugin)
sduDataReceived                                   /var/folders/_f/jzb7lsz153bclt069nvlpp5r0000gn/T//ccGAufxj.ltrans7.ltrans.o
                                                  ./build/obj/hal_serial_usb.o (symbol from plugin)
                                                  /var/folders/_f/jzb7lsz153bclt069nvlpp5r0000gn/T//ccGAufxj.ltrans5.ltrans.o
                                                  ./build/obj/usbcfg.o (symbol from plugin)
sduDataTransmitted                                /var/folders/_f/jzb7lsz153bclt069nvlpp5r0000gn/T//ccGAufxj.ltrans7.ltrans.o
                                                  ./build/obj/hal_serial_usb.o (symbol from plugin)
                                                  /var/folders/_f/jzb7lsz153bclt069nvlpp5r0000gn/T//ccGAufxj.ltrans5.ltrans.o
                                                  ./build/obj/usbcfg.o (symbol from plugin)
sduInit                                           ./build/obj/hal_serial_usb.o (symbol from plugin)
                                                  ./build/obj/hal.o (symbol from plugin)
sduInterruptTransmitted                           /var/folders/_f/jzb7lsz153bclt069nvlpp5r0000gn/T//ccGAufxj.ltrans7.ltrans.o
                                                  ./build/obj/hal_serial_usb.o (symbol from plugin)
                                                  /var/folders/_f/jzb7lsz153bclt069nvlpp5r0000gn/T//ccGAufxj.ltrans5.ltrans.o
                                                  ./build/obj/usbcfg.o (symbol from plugin)
sduObjectInit                                     ./build/obj/hal_serial_usb.o (symbol from plugin)
                                                  ./build/obj/svm_chibios_main.o (symbol from plugin)
sduRequestsHook                                   /var/folders/_f/jzb7lsz153bclt069nvlpp5r0000gn/T//ccGAufxj.ltrans7.ltrans.o
                                                  ./build/obj/hal_serial_usb.o (symbol from plugin)
                                                  /var/folders/_f/jzb7lsz153bclt069nvlpp5r0000gn/T//ccGAufxj.ltrans0.ltrans.o
                                                  ./build/obj/usbcfg.o (symbol from plugin)
sduSOFHookI                                       ./build/obj/hal_serial_usb.o (symbol from plugin)
                                                  ./build/obj/usbcfg.o (symbol from plugin)
sduStart                                          ./build/obj/hal_serial_usb.o (symbol from plugin)
                                                  ./build/obj/svm_chibios_main.o (symbol from plugin)
sduStop                                           ./build/obj/hal_serial_usb.o (symbol from plugin)
sduSuspendHookI                                   ./build/obj/hal_serial_usb.o (symbol from plugin)
                                                  ./build/obj/usbcfg.o (symbol from plugin)
sduWakeupHookI                                    ./build/obj/hal_serial_usb.o (symbol from plugin)
                                                  ./build/obj/usbcfg.o (symbol from plugin)
sdu_start_receive.lto_priv.102                    /var/folders/_f/jzb7lsz153bclt069nvlpp5r0000gn/T//ccGAufxj.ltrans7.ltrans.o
                                                  /var/folders/_f/jzb7lsz153bclt069nvlpp5r0000gn/T//ccGAufxj.ltrans5.ltrans.o
sendEvt                                           ./build/obj/RTS.o (symbol from plugin)
                                                  ./build/obj/CAM.o (symbol from plugin)
send_message.lto_priv.71                          /var/folders/_f/jzb7lsz153bclt069nvlpp5r0000gn/T//ccGAufxj.ltrans5.ltrans.o
                                                  /var/folders/_f/jzb7lsz153bclt069nvlpp5r0000gn/T//ccGAufxj.ltrans0.ltrans.o
serusbcfg                                         ./build/obj/usbcfg.o (symbol from plugin)
                                                  ./build/obj/svm_chibios_main.o (symbol from plugin)
setAlarm.lto_priv.101                             /var/folders/_f/jzb7lsz153bclt069nvlpp5r0000gn/T//ccGAufxj.ltrans9.ltrans.o
                                                  /var/folders/_f/jzb7lsz153bclt069nvlpp5r0000gn/T//ccGAufxj.ltrans5.ltrans.o
                                                  /var/folders/_f/jzb7lsz153bclt069nvlpp5r0000gn/T//ccGAufxj.ltrans3.ltrans.o
setlocale                                         /usr/local/Cellar/gcc-arm-none-eabi-49/20150925/bin/../lib/gcc/arm-none-eabi/4.9.3/../../../../arm-none-eabi/lib/armv7e-m/fpu/libg.a(lib_a-locale.o)
sof_handler.lto_priv.82                           /var/folders/_f/jzb7lsz153bclt069nvlpp5r0000gn/T//ccGAufxj.ltrans5.ltrans.o
                                                  /var/folders/_f/jzb7lsz153bclt069nvlpp5r0000gn/T//ccGAufxj.ltrans0.ltrans.o
spawn                                             /var/folders/_f/jzb7lsz153bclt069nvlpp5r0000gn/T//ccGAufxj.ltrans9.ltrans.o
                                                  ./build/obj/RTS.o (symbol from plugin)
                                                  /var/folders/_f/jzb7lsz153bclt069nvlpp5r0000gn/T//ccGAufxj.ltrans3.ltrans.o
                                                  ./build/obj/CAM.o (symbol from plugin)
stGetAlarm                                        ./build/obj/hal_st.o (symbol from plugin)
stGetCounter                                      ./build/obj/hal_st.o (symbol from plugin)
                                                  ./build/obj/chthreads.o (symbol from plugin)
                                                  ./build/obj/chvt.o (symbol from plugin)
                                                  ./build/obj/chtrace.o (symbol from plugin)
stInit                                            ./build/obj/hal_st.o (symbol from plugin)
                                                  ./build/obj/hal.o (symbol from plugin)
stIsAlarmActive                                   ./build/obj/hal_st.o (symbol from plugin)
stSetAlarm                                        /var/folders/_f/jzb7lsz153bclt069nvlpp5r0000gn/T//ccGAufxj.ltrans7.ltrans.o
                                                  ./build/obj/hal_st.o (symbol from plugin)
                                                  /var/folders/_f/jzb7lsz153bclt069nvlpp5r0000gn/T//ccGAufxj.ltrans4.ltrans.o
                                                  /var/folders/_f/jzb7lsz153bclt069nvlpp5r0000gn/T//ccGAufxj.ltrans1.ltrans.o
                                                  ./build/obj/chvt.o (symbol from plugin)
stStartAlarm                                      ./build/obj/hal_st.o (symbol from plugin)
                                                  ./build/obj/chvt.o (symbol from plugin)
stStopAlarm                                       ./build/obj/hal_st.o (symbol from plugin)
                                                  ./build/obj/chvt.o (symbol from plugin)
st_lld_init                                       ./build/obj/hal_st_lld.o (symbol from plugin)
                                                  ./build/obj/hal_st.o (symbol from plugin)
st_lld_serve_interrupt                            ./build/obj/hal_st_lld.o (symbol from plugin)
stack_get_sp                                      ./build/obj/stack.o (symbol from plugin)
stack_init                                        ./build/obj/stack.o (symbol from plugin)
                                                  ./build/obj/VMC.o (symbol from plugin)
stack_pop                                         /var/folders/_f/jzb7lsz153bclt069nvlpp5r0000gn/T//ccGAufxj.ltrans9.ltrans.o
                                                  ./build/obj/stack.o (symbol from plugin)
                                                  /var/folders/_f/jzb7lsz153bclt069nvlpp5r0000gn/T//ccGAufxj.ltrans3.ltrans.o
                                                  /var/folders/_f/jzb7lsz153bclt069nvlpp5r0000gn/T//ccGAufxj.ltrans2.ltrans.o
                                                  ./build/obj/CAM.o (symbol from plugin)
stack_push                                        /var/folders/_f/jzb7lsz153bclt069nvlpp5r0000gn/T//ccGAufxj.ltrans9.ltrans.o
                                                  ./build/obj/stack.o (symbol from plugin)
                                                  /var/folders/_f/jzb7lsz153bclt069nvlpp5r0000gn/T//ccGAufxj.ltrans2.ltrans.o
                                                  ./build/obj/RTS.o (symbol from plugin)
                                                  ./build/obj/CAM.o (symbol from plugin)
stm32_clock_init                                  ./build/obj/hal_lld.o (symbol from plugin)
                                                  ./build/obj/board.o (symbol from plugin)
strcmp                                            /usr/local/Cellar/gcc-arm-none-eabi-49/20150925/bin/../lib/gcc/arm-none-eabi/4.9.3/../../../../arm-none-eabi/lib/armv7e-m/fpu/libg.a(lib_a-strcmp.o)
                                                  /usr/local/Cellar/gcc-arm-none-eabi-49/20150925/bin/../lib/gcc/arm-none-eabi/4.9.3/../../../../arm-none-eabi/lib/armv7e-m/fpu/libg.a(lib_a-locale.o)
strlen                                            /usr/local/Cellar/gcc-arm-none-eabi-49/20150925/bin/../lib/gcc/arm-none-eabi/4.9.3/../../../../arm-none-eabi/lib/armv7e-m/fpu/libg.a(lib_a-strlen.o)
                                                  /usr/local/Cellar/gcc-arm-none-eabi-49/20150925/bin/../lib/gcc/arm-none-eabi/4.9.3/../../../../arm-none-eabi/lib/armv7e-m/fpu/libg.a(lib_a-svfiprintf.o)
                                                  /usr/local/Cellar/gcc-arm-none-eabi-49/20150925/bin/../lib/gcc/arm-none-eabi/4.9.3/../../../../arm-none-eabi/lib/armv7e-m/fpu/libg.a(lib_a-svfprintf.o)
sync                                              ./build/obj/RTS.o (symbol from plugin)
                                                  ./build/obj/CAM.o (symbol from plugin)
sys_get_wake_up_time                              ./build/obj/sys_time.o (symbol from plugin)
                                                  ./build/obj/RTS.o (symbol from plugin)
sys_is_alarm_set                                  ./build/obj/sys_time.o (symbol from plugin)
                                                  ./build/obj/RTS.o (symbol from plugin)
sys_sleep_ms                                      ./build/obj/sys_time.o (symbol from plugin)
sys_time_alarm_channels                           ./build/obj/sys_time.o (symbol from plugin)
sys_time_get_clock_freq                           ./build/obj/sys_time.o (symbol from plugin)
sys_time_get_current_ticks                        /var/folders/_f/jzb7lsz153bclt069nvlpp5r0000gn/T//ccGAufxj.ltrans5.ltrans.o
                                                  ./build/obj/sys_time.o (symbol from plugin)
                                                  /var/folders/_f/jzb7lsz153bclt069nvlpp5r0000gn/T//ccGAufxj.ltrans3.ltrans.o
                                                  ./build/obj/scheduler.o (symbol from plugin)
                                                  ./build/obj/RTS.o (symbol from plugin)
sys_time_init                                     ./build/obj/sys_time.o (symbol from plugin)
                                                  ./build/obj/VMC.o (symbol from plugin)
sys_time_set_wake_up                              /var/folders/_f/jzb7lsz153bclt069nvlpp5r0000gn/T//ccGAufxj.ltrans5.ltrans.o
                                                  ./build/obj/sys_time.o (symbol from plugin)
                                                  /var/folders/_f/jzb7lsz153bclt069nvlpp5r0000gn/T//ccGAufxj.ltrans9.ltrans.o
                                                  ./build/obj/RTS.o (symbol from plugin)
thread_data                                       ./build/obj/svm_chibios.o (symbol from plugin)
tim                                               /var/folders/_f/jzb7lsz153bclt069nvlpp5r0000gn/T//ccGAufxj.ltrans0.ltrans.o
                                                  ./build/obj/sys_time.o (symbol from plugin)
                                                  /var/folders/_f/jzb7lsz153bclt069nvlpp5r0000gn/T//ccGAufxj.ltrans5.ltrans.o
time                                              ./build/obj/RTS.o (symbol from plugin)
                                                  ./build/obj/CAM.o (symbol from plugin)
trace                                             ./build/obj/scheduler.o (symbol from plugin)
trace_add                                         ./build/obj/scheduler.o (symbol from plugin)
trace_next                                        ./build/obj/scheduler.o (symbol from plugin)
trace_next.lto_priv.115                           /var/folders/_f/jzb7lsz153bclt069nvlpp5r0000gn/T//ccGAufxj.ltrans1.ltrans.o
                                                  /var/folders/_f/jzb7lsz153bclt069nvlpp5r0000gn/T//ccGAufxj.ltrans4.ltrans.o
trace_print                                       ./build/obj/scheduler.o (symbol from plugin)
trace_storage                                     ./build/obj/scheduler.o (symbol from plugin)
usbDisableEndpointsI                              ./build/obj/hal_usb.o (symbol from plugin)
usbInit                                           ./build/obj/hal_usb.o (symbol from plugin)
                                                  ./build/obj/hal.o (symbol from plugin)
usbInitEndpointI                                  /var/folders/_f/jzb7lsz153bclt069nvlpp5r0000gn/T//ccGAufxj.ltrans7.ltrans.o
                                                  ./build/obj/hal_usb.o (symbol from plugin)
                                                  /var/folders/_f/jzb7lsz153bclt069nvlpp5r0000gn/T//ccGAufxj.ltrans5.ltrans.o
                                                  ./build/obj/usbcfg.o (symbol from plugin)
usbObjectInit                                     ./build/obj/hal_usb.o (symbol from plugin)
                                                  ./build/obj/hal_usb_lld.o (symbol from plugin)
usbStallReceiveI                                  ./build/obj/hal_usb.o (symbol from plugin)
usbStallTransmitI                                 ./build/obj/hal_usb.o (symbol from plugin)
usbStart                                          ./build/obj/hal_usb.o (symbol from plugin)
                                                  ./build/obj/svm_chibios_main.o (symbol from plugin)
usbStartReceiveI                                  /var/folders/_f/jzb7lsz153bclt069nvlpp5r0000gn/T//ccGAufxj.ltrans6.ltrans.o
                                                  ./build/obj/hal_usb.o (symbol from plugin)
                                                  /var/folders/_f/jzb7lsz153bclt069nvlpp5r0000gn/T//ccGAufxj.ltrans7.ltrans.o
                                                  ./build/obj/hal_serial_usb.o (symbol from plugin)
usbStartTransmitI                                 /var/folders/_f/jzb7lsz153bclt069nvlpp5r0000gn/T//ccGAufxj.ltrans6.ltrans.o
                                                  ./build/obj/hal_usb.o (symbol from plugin)
                                                  /var/folders/_f/jzb7lsz153bclt069nvlpp5r0000gn/T//ccGAufxj.ltrans7.ltrans.o
                                                  /var/folders/_f/jzb7lsz153bclt069nvlpp5r0000gn/T//ccGAufxj.ltrans5.ltrans.o
                                                  ./build/obj/hal_serial_usb.o (symbol from plugin)
usbStop                                           ./build/obj/hal_usb.o (symbol from plugin)
usbWakeupHost                                     ./build/obj/hal_usb.o (symbol from plugin)
usb_event.lto_priv.80                             /var/folders/_f/jzb7lsz153bclt069nvlpp5r0000gn/T//ccGAufxj.ltrans5.ltrans.o
                                                  /var/folders/_f/jzb7lsz153bclt069nvlpp5r0000gn/T//ccGAufxj.ltrans0.ltrans.o
usb_lld_clear_in                                  ./build/obj/hal_usb_lld.o (symbol from plugin)
                                                  ./build/obj/hal_usb.o (symbol from plugin)
usb_lld_clear_out                                 ./build/obj/hal_usb_lld.o (symbol from plugin)
                                                  ./build/obj/hal_usb.o (symbol from plugin)
usb_lld_disable_endpoints                         ./build/obj/hal_usb_lld.o (symbol from plugin)
                                                  ./build/obj/hal_usb.o (symbol from plugin)
usb_lld_get_status_in                             ./build/obj/hal_usb_lld.o (symbol from plugin)
                                                  ./build/obj/hal_usb.o (symbol from plugin)
usb_lld_get_status_out                            ./build/obj/hal_usb_lld.o (symbol from plugin)
                                                  ./build/obj/hal_usb.o (symbol from plugin)
usb_lld_init                                      ./build/obj/hal_usb_lld.o (symbol from plugin)
                                                  ./build/obj/hal_usb.o (symbol from plugin)
usb_lld_init_endpoint                             ./build/obj/hal_usb_lld.o (symbol from plugin)
                                                  ./build/obj/hal_usb.o (symbol from plugin)
usb_lld_read_setup                                ./build/obj/hal_usb_lld.o (symbol from plugin)
                                                  ./build/obj/hal_usb.o (symbol from plugin)
usb_lld_reset                                     ./build/obj/hal_usb_lld.o (symbol from plugin)
                                                  ./build/obj/hal_usb.o (symbol from plugin)
usb_lld_set_address                               ./build/obj/hal_usb_lld.o (symbol from plugin)
                                                  ./build/obj/hal_usb.o (symbol from plugin)
usb_lld_stall_in                                  ./build/obj/hal_usb_lld.o (symbol from plugin)
                                                  ./build/obj/hal_usb.o (symbol from plugin)
usb_lld_stall_out                                 ./build/obj/hal_usb_lld.o (symbol from plugin)
                                                  ./build/obj/hal_usb.o (symbol from plugin)
usb_lld_start                                     ./build/obj/hal_usb_lld.o (symbol from plugin)
                                                  ./build/obj/hal_usb.o (symbol from plugin)
usb_lld_start_in                                  /var/folders/_f/jzb7lsz153bclt069nvlpp5r0000gn/T//ccGAufxj.ltrans4.ltrans.o
                                                  ./build/obj/hal_usb_lld.o (symbol from plugin)
                                                  /var/folders/_f/jzb7lsz153bclt069nvlpp5r0000gn/T//ccGAufxj.ltrans6.ltrans.o
                                                  ./build/obj/hal_usb.o (symbol from plugin)
usb_lld_start_out                                 /var/folders/_f/jzb7lsz153bclt069nvlpp5r0000gn/T//ccGAufxj.ltrans4.ltrans.o
                                                  ./build/obj/hal_usb_lld.o (symbol from plugin)
                                                  /var/folders/_f/jzb7lsz153bclt069nvlpp5r0000gn/T//ccGAufxj.ltrans6.ltrans.o
                                                  ./build/obj/hal_usb.o (symbol from plugin)
usb_lld_stop                                      ./build/obj/hal_usb_lld.o (symbol from plugin)
                                                  ./build/obj/hal_usb.o (symbol from plugin)
usbcfg                                            ./build/obj/usbcfg.o (symbol from plugin)
                                                  ./build/obj/svm_chibios_main.o (symbol from plugin)
vm_containers                                     ./build/obj/svm_chibios.o (symbol from plugin)
vmc_container_1_arrays                            ./build/obj/VMC.o (symbol from plugin)
vmc_container_1_channels                          ./build/obj/VMC.o (symbol from plugin)
vmc_container_1_code                              ./build/obj/VMC.o (symbol from plugin)
vmc_container_1_heap                              ./build/obj/VMC.o (symbol from plugin)
vmc_container_1_rdyq                              ./build/obj/VMC.o (symbol from plugin)
vmc_container_1_stack                             ./build/obj/VMC.o (symbol from plugin)
vmc_container_1_waitq                             ./build/obj/VMC.o (symbol from plugin)
vmc_heap_alloc_n                                  ./build/obj/VMC.o (symbol from plugin)
                                                  ./build/obj/RTS.o (symbol from plugin)
vmc_heap_alloc_n.constprop.21                     /var/folders/_f/jzb7lsz153bclt069nvlpp5r0000gn/T//ccGAufxj.ltrans8.ltrans.o
                                                  /var/folders/_f/jzb7lsz153bclt069nvlpp5r0000gn/T//ccGAufxj.ltrans3.ltrans.o
vmc_heap_alloc_withGC                             /var/folders/_f/jzb7lsz153bclt069nvlpp5r0000gn/T//ccGAufxj.ltrans9.ltrans.o
                                                  ./build/obj/VMC.o (symbol from plugin)
                                                  /var/folders/_f/jzb7lsz153bclt069nvlpp5r0000gn/T//ccGAufxj.ltrans3.ltrans.o
                                                  /var/folders/_f/jzb7lsz153bclt069nvlpp5r0000gn/T//ccGAufxj.ltrans2.ltrans.o
                                                  ./build/obj/RTS.o (symbol from plugin)
                                                  ./build/obj/CAM.o (symbol from plugin)
vmc_init                                          ./build/obj/VMC.o (symbol from plugin)
                                                  ./build/obj/svm_chibios.o (symbol from plugin)
vmc_run                                           ./build/obj/VMC.o (symbol from plugin)
                                                  ./build/obj/svm_chibios.o (symbol from plugin)
vsnprintf                                         /usr/local/Cellar/gcc-arm-none-eabi-49/20150925/bin/../lib/gcc/arm-none-eabi/4.9.3/../../../../arm-none-eabi/lib/armv7e-m/fpu/libg.a(lib_a-vsnprintf.o)
                                                  /var/folders/_f/jzb7lsz153bclt069nvlpp5r0000gn/T//ccGAufxj.ltrans5.ltrans.o
